

Microchip MPLAB XC8 Assembler V2.20 build 20200408173844 
                                                                                               Sat Jul 04 11:21:19 2020

Microchip MPLAB XC8 C Compiler v2.20 (Free license) build 20200408173844 Og1 
     1                           	processor	16F877A
     2                           	pagewidth 120
     3                           	opt	flic
     4                           	psect	idataBANK0,global,class=CODE,delta=2,noexec
     5                           	psect	strings,global,class=STRING,delta=2,noexec
     6                           	psect	cinit,global,class=CODE,merge=1,delta=2
     7                           	psect	bssBANK0,global,class=BANK0,space=1,delta=1,noexec
     8                           	psect	dataBANK0,global,class=BANK0,space=1,delta=1,noexec
     9                           	psect	bssBANK1,global,class=BANK1,space=1,delta=1,noexec
    10                           	psect	clrtext,global,class=CODE,delta=2
    11                           	psect	cstackBANK1,global,class=BANK1,space=1,delta=1,noexec
    12                           	psect	cstackCOMMON,global,class=COMMON,space=1,delta=1,noexec
    13                           	psect	cstackBANK0,global,class=BANK0,space=1,delta=1,noexec
    14                           	psect	maintext,global,class=CODE,split=1,delta=2
    15                           	psect	text1,local,class=CODE,merge=1,delta=2
    16                           	psect	text2,local,class=CODE,merge=1,delta=2
    17                           	psect	text3,local,class=CODE,merge=1,delta=2
    18                           	psect	text4,local,class=CODE,merge=1,delta=2
    19                           	psect	text5,local,class=CODE,merge=1,delta=2
    20                           	psect	text6,local,class=CODE,merge=1,delta=2
    21                           	psect	text7,local,class=CODE,merge=1,delta=2
    22                           	psect	text8,local,class=CODE,merge=1,delta=2
    23                           	psect	text9,local,class=CODE,merge=1,delta=2
    24                           	psect	text10,local,class=CODE,merge=1,delta=2
    25                           	psect	text11,local,class=CODE,merge=1,delta=2
    26                           	psect	text12,local,class=CODE,merge=1,delta=2
    27                           	psect	text13,local,class=CODE,merge=1,delta=2
    28                           	psect	text14,local,class=CODE,merge=1,delta=2
    29                           	psect	text15,local,class=CODE,merge=1,delta=2
    30                           	psect	text16,local,class=CODE,merge=1,delta=2
    31                           	psect	text17,local,class=CODE,merge=1,delta=2
    32                           	psect	intentry,global,class=CODE,delta=2
    33                           	psect	text18,local,class=CODE,merge=1,delta=2
    34                           	psect	text19,local,class=CODE,merge=1,delta=2
    35                           	psect	text20,local,class=CODE,merge=1,delta=2,group=1
    36                           	psect	text21,local,class=CODE,merge=1,delta=2
    37                           	psect	text22,local,class=CODE,merge=1,delta=2
    38                           	psect	text23,local,class=CODE,merge=1,delta=2,group=1
    39                           	psect	text24,local,class=CODE,merge=1,delta=2
    40                           	psect	text25,local,class=CODE,merge=1,delta=2
    41                           	psect	text26,local,class=CODE,merge=1,delta=2,group=1
    42                           	psect	text27,local,class=CODE,merge=1,delta=2
    43                           	psect	text28,local,class=CODE,merge=1,delta=2
    44                           	psect	text29,local,class=CODE,merge=1,delta=2
    45                           	psect	text30,local,class=CODE,merge=1,delta=2
    46                           	psect	text31,local,class=CODE,merge=1,delta=2
    47                           	psect	text32,local,class=CODE,merge=1,delta=2
    48                           	psect	text33,local,class=CODE,merge=1,delta=2
    49                           	psect	text34,local,class=CODE,merge=1,delta=2
    50                           	psect	config,global,abs,ovrld,class=CONFIG,space=4,delta=2,noexec
    51                           	dabs	1,0x7E,2
    52  0000                     
    53                           ; Version 2.20
    54                           ; Generated 12/02/2020 GMT
    55                           ; 
    56                           ; Copyright © 2020, Microchip Technology Inc. and its subsidiaries ("Microchip")
    57                           ; All rights reserved.
    58                           ; 
    59                           ; This software is developed by Microchip Technology Inc. and its subsidiaries ("Microch
      +                          ip").
    60                           ; 
    61                           ; Redistribution and use in source and binary forms, with or without modification, are
    62                           ; permitted provided that the following conditions are met:
    63                           ; 
    64                           ;     1. Redistributions of source code must retain the above copyright notice, this lis
      +                          t of
    65                           ;        conditions and the following disclaimer.
    66                           ; 
    67                           ;     2. Redistributions in binary form must reproduce the above copyright notice, this 
      +                          list
    68                           ;        of conditions and the following disclaimer in the documentation and/or other
    69                           ;        materials provided with the distribution.
    70                           ; 
    71                           ;     3. Microchip's name may not be used to endorse or promote products derived from th
      +                          is
    72                           ;        software without specific prior written permission.
    73                           ; 
    74                           ; THIS SOFTWARE IS PROVIDED BY MICROCHIP "AS IS" AND ANY EXPRESS OR IMPLIED WARRANTIES,
    75                           ; INCLUDING, BUT NOT LIMITED TO, THE IMPLIED WARRANTIES OF MERCHANTABILITY AND FITNESS F
      +                          OR
    76                           ; PURPOSE ARE DISCLAIMED.  IN NO EVENT SHALL MICROCHIP BE LIABLE FOR ANY DIRECT, INDIREC
      +                          T,
    77                           ; INCIDENTAL, SPECIAL, EXEMPLARY, OR CONSEQUENTIAL DAMAGES (INCLUDING BUT NOT LIMITED TO
    78                           ; PROCUREMENT OF SUBSTITUTE GOODS OR SERVICES; LOSS OF USE, DATA OR PROFITS; OR BUSINESS
    79                           ; INTERRUPTION) HOWSOEVER CAUSED AND ON ANY THEORY OF LIABILITY, WHETHER IN CONTRACT, ST
      +                          RICT
    80                           ; LIABILITY, OR TORT (INCLUDING NEGLIGENCE OR OTHERWISE) ARISING IN ANY WAY OUT OF THE U
      +                          SE OF
    81                           ; THIS SOFTWARE, EVEN IF ADVISED OF THE POSSIBILITY OF SUCH DAMAGE.
    82                           ; 
    83                           ; 
    84                           ; Code-generator required, PIC16F877A Definitions
    85                           ; 
    86                           ; SFR Addresses
    87  0000                     	;# 
    88  0001                     	;# 
    89  0002                     	;# 
    90  0003                     	;# 
    91  0004                     	;# 
    92  0005                     	;# 
    93  0006                     	;# 
    94  0007                     	;# 
    95  0008                     	;# 
    96  0009                     	;# 
    97  000A                     	;# 
    98  000B                     	;# 
    99  000C                     	;# 
   100  000D                     	;# 
   101  000E                     	;# 
   102  000E                     	;# 
   103  000F                     	;# 
   104  0010                     	;# 
   105  0011                     	;# 
   106  0012                     	;# 
   107  0013                     	;# 
   108  0014                     	;# 
   109  0015                     	;# 
   110  0015                     	;# 
   111  0016                     	;# 
   112  0017                     	;# 
   113  0018                     	;# 
   114  0019                     	;# 
   115  001A                     	;# 
   116  001B                     	;# 
   117  001B                     	;# 
   118  001C                     	;# 
   119  001D                     	;# 
   120  001E                     	;# 
   121  001F                     	;# 
   122  0081                     	;# 
   123  0085                     	;# 
   124  0086                     	;# 
   125  0087                     	;# 
   126  0088                     	;# 
   127  0089                     	;# 
   128  008C                     	;# 
   129  008D                     	;# 
   130  008E                     	;# 
   131  0091                     	;# 
   132  0092                     	;# 
   133  0093                     	;# 
   134  0094                     	;# 
   135  0098                     	;# 
   136  0099                     	;# 
   137  009C                     	;# 
   138  009D                     	;# 
   139  009E                     	;# 
   140  009F                     	;# 
   141  010C                     	;# 
   142  010D                     	;# 
   143  010E                     	;# 
   144  010F                     	;# 
   145  018C                     	;# 
   146  018D                     	;# 
   147  0000                     	;# 
   148  0001                     	;# 
   149  0002                     	;# 
   150  0003                     	;# 
   151  0004                     	;# 
   152  0005                     	;# 
   153  0006                     	;# 
   154  0007                     	;# 
   155  0008                     	;# 
   156  0009                     	;# 
   157  000A                     	;# 
   158  000B                     	;# 
   159  000C                     	;# 
   160  000D                     	;# 
   161  000E                     	;# 
   162  000E                     	;# 
   163  000F                     	;# 
   164  0010                     	;# 
   165  0011                     	;# 
   166  0012                     	;# 
   167  0013                     	;# 
   168  0014                     	;# 
   169  0015                     	;# 
   170  0015                     	;# 
   171  0016                     	;# 
   172  0017                     	;# 
   173  0018                     	;# 
   174  0019                     	;# 
   175  001A                     	;# 
   176  001B                     	;# 
   177  001B                     	;# 
   178  001C                     	;# 
   179  001D                     	;# 
   180  001E                     	;# 
   181  001F                     	;# 
   182  0081                     	;# 
   183  0085                     	;# 
   184  0086                     	;# 
   185  0087                     	;# 
   186  0088                     	;# 
   187  0089                     	;# 
   188  008C                     	;# 
   189  008D                     	;# 
   190  008E                     	;# 
   191  0091                     	;# 
   192  0092                     	;# 
   193  0093                     	;# 
   194  0094                     	;# 
   195  0098                     	;# 
   196  0099                     	;# 
   197  009C                     	;# 
   198  009D                     	;# 
   199  009E                     	;# 
   200  009F                     	;# 
   201  010C                     	;# 
   202  010D                     	;# 
   203  010E                     	;# 
   204  010F                     	;# 
   205  018C                     	;# 
   206  018D                     	;# 
   207  0000                     	;# 
   208  0001                     	;# 
   209  0002                     	;# 
   210  0003                     	;# 
   211  0004                     	;# 
   212  0005                     	;# 
   213  0006                     	;# 
   214  0007                     	;# 
   215  0008                     	;# 
   216  0009                     	;# 
   217  000A                     	;# 
   218  000B                     	;# 
   219  000C                     	;# 
   220  000D                     	;# 
   221  000E                     	;# 
   222  000E                     	;# 
   223  000F                     	;# 
   224  0010                     	;# 
   225  0011                     	;# 
   226  0012                     	;# 
   227  0013                     	;# 
   228  0014                     	;# 
   229  0015                     	;# 
   230  0015                     	;# 
   231  0016                     	;# 
   232  0017                     	;# 
   233  0018                     	;# 
   234  0019                     	;# 
   235  001A                     	;# 
   236  001B                     	;# 
   237  001B                     	;# 
   238  001C                     	;# 
   239  001D                     	;# 
   240  001E                     	;# 
   241  001F                     	;# 
   242  0081                     	;# 
   243  0085                     	;# 
   244  0086                     	;# 
   245  0087                     	;# 
   246  0088                     	;# 
   247  0089                     	;# 
   248  008C                     	;# 
   249  008D                     	;# 
   250  008E                     	;# 
   251  0091                     	;# 
   252  0092                     	;# 
   253  0093                     	;# 
   254  0094                     	;# 
   255  0098                     	;# 
   256  0099                     	;# 
   257  009C                     	;# 
   258  009D                     	;# 
   259  009E                     	;# 
   260  009F                     	;# 
   261  010C                     	;# 
   262  010D                     	;# 
   263  010E                     	;# 
   264  010F                     	;# 
   265  018C                     	;# 
   266  018D                     	;# 
   267  0000                     	;# 
   268  0001                     	;# 
   269  0002                     	;# 
   270  0003                     	;# 
   271  0004                     	;# 
   272  0005                     	;# 
   273  0006                     	;# 
   274  0007                     	;# 
   275  0008                     	;# 
   276  0009                     	;# 
   277  000A                     	;# 
   278  000B                     	;# 
   279  000C                     	;# 
   280  000D                     	;# 
   281  000E                     	;# 
   282  000E                     	;# 
   283  000F                     	;# 
   284  0010                     	;# 
   285  0011                     	;# 
   286  0012                     	;# 
   287  0013                     	;# 
   288  0014                     	;# 
   289  0015                     	;# 
   290  0015                     	;# 
   291  0016                     	;# 
   292  0017                     	;# 
   293  0018                     	;# 
   294  0019                     	;# 
   295  001A                     	;# 
   296  001B                     	;# 
   297  001B                     	;# 
   298  001C                     	;# 
   299  001D                     	;# 
   300  001E                     	;# 
   301  001F                     	;# 
   302  0081                     	;# 
   303  0085                     	;# 
   304  0086                     	;# 
   305  0087                     	;# 
   306  0088                     	;# 
   307  0089                     	;# 
   308  008C                     	;# 
   309  008D                     	;# 
   310  008E                     	;# 
   311  0091                     	;# 
   312  0092                     	;# 
   313  0093                     	;# 
   314  0094                     	;# 
   315  0098                     	;# 
   316  0099                     	;# 
   317  009C                     	;# 
   318  009D                     	;# 
   319  009E                     	;# 
   320  009F                     	;# 
   321  010C                     	;# 
   322  010D                     	;# 
   323  010E                     	;# 
   324  010F                     	;# 
   325  018C                     	;# 
   326  018D                     	;# 
   327  0000                     	;# 
   328  0001                     	;# 
   329  0002                     	;# 
   330  0003                     	;# 
   331  0004                     	;# 
   332  0005                     	;# 
   333  0006                     	;# 
   334  0007                     	;# 
   335  0008                     	;# 
   336  0009                     	;# 
   337  000A                     	;# 
   338  000B                     	;# 
   339  000C                     	;# 
   340  000D                     	;# 
   341  000E                     	;# 
   342  000E                     	;# 
   343  000F                     	;# 
   344  0010                     	;# 
   345  0011                     	;# 
   346  0012                     	;# 
   347  0013                     	;# 
   348  0014                     	;# 
   349  0015                     	;# 
   350  0015                     	;# 
   351  0016                     	;# 
   352  0017                     	;# 
   353  0018                     	;# 
   354  0019                     	;# 
   355  001A                     	;# 
   356  001B                     	;# 
   357  001B                     	;# 
   358  001C                     	;# 
   359  001D                     	;# 
   360  001E                     	;# 
   361  001F                     	;# 
   362  0081                     	;# 
   363  0085                     	;# 
   364  0086                     	;# 
   365  0087                     	;# 
   366  0088                     	;# 
   367  0089                     	;# 
   368  008C                     	;# 
   369  008D                     	;# 
   370  008E                     	;# 
   371  0091                     	;# 
   372  0092                     	;# 
   373  0093                     	;# 
   374  0094                     	;# 
   375  0098                     	;# 
   376  0099                     	;# 
   377  009C                     	;# 
   378  009D                     	;# 
   379  009E                     	;# 
   380  009F                     	;# 
   381  010C                     	;# 
   382  010D                     	;# 
   383  010E                     	;# 
   384  010F                     	;# 
   385  018C                     	;# 
   386  018D                     	;# 
   387  0000                     	;# 
   388  0001                     	;# 
   389  0002                     	;# 
   390  0003                     	;# 
   391  0004                     	;# 
   392  0005                     	;# 
   393  0006                     	;# 
   394  0007                     	;# 
   395  0008                     	;# 
   396  0009                     	;# 
   397  000A                     	;# 
   398  000B                     	;# 
   399  000C                     	;# 
   400  000D                     	;# 
   401  000E                     	;# 
   402  000E                     	;# 
   403  000F                     	;# 
   404  0010                     	;# 
   405  0011                     	;# 
   406  0012                     	;# 
   407  0013                     	;# 
   408  0014                     	;# 
   409  0015                     	;# 
   410  0015                     	;# 
   411  0016                     	;# 
   412  0017                     	;# 
   413  0018                     	;# 
   414  0019                     	;# 
   415  001A                     	;# 
   416  001B                     	;# 
   417  001B                     	;# 
   418  001C                     	;# 
   419  001D                     	;# 
   420  001E                     	;# 
   421  001F                     	;# 
   422  0081                     	;# 
   423  0085                     	;# 
   424  0086                     	;# 
   425  0087                     	;# 
   426  0088                     	;# 
   427  0089                     	;# 
   428  008C                     	;# 
   429  008D                     	;# 
   430  008E                     	;# 
   431  0091                     	;# 
   432  0092                     	;# 
   433  0093                     	;# 
   434  0094                     	;# 
   435  0098                     	;# 
   436  0099                     	;# 
   437  009C                     	;# 
   438  009D                     	;# 
   439  009E                     	;# 
   440  009F                     	;# 
   441  010C                     	;# 
   442  010D                     	;# 
   443  010E                     	;# 
   444  010F                     	;# 
   445  018C                     	;# 
   446  018D                     	;# 
   447  0000                     	;# 
   448  0001                     	;# 
   449  0002                     	;# 
   450  0003                     	;# 
   451  0004                     	;# 
   452  0005                     	;# 
   453  0006                     	;# 
   454  0007                     	;# 
   455  0008                     	;# 
   456  0009                     	;# 
   457  000A                     	;# 
   458  000B                     	;# 
   459  000C                     	;# 
   460  000D                     	;# 
   461  000E                     	;# 
   462  000E                     	;# 
   463  000F                     	;# 
   464  0010                     	;# 
   465  0011                     	;# 
   466  0012                     	;# 
   467  0013                     	;# 
   468  0014                     	;# 
   469  0015                     	;# 
   470  0015                     	;# 
   471  0016                     	;# 
   472  0017                     	;# 
   473  0018                     	;# 
   474  0019                     	;# 
   475  001A                     	;# 
   476  001B                     	;# 
   477  001B                     	;# 
   478  001C                     	;# 
   479  001D                     	;# 
   480  001E                     	;# 
   481  001F                     	;# 
   482  0081                     	;# 
   483  0085                     	;# 
   484  0086                     	;# 
   485  0087                     	;# 
   486  0088                     	;# 
   487  0089                     	;# 
   488  008C                     	;# 
   489  008D                     	;# 
   490  008E                     	;# 
   491  0091                     	;# 
   492  0092                     	;# 
   493  0093                     	;# 
   494  0094                     	;# 
   495  0098                     	;# 
   496  0099                     	;# 
   497  009C                     	;# 
   498  009D                     	;# 
   499  009E                     	;# 
   500  009F                     	;# 
   501  010C                     	;# 
   502  010D                     	;# 
   503  010E                     	;# 
   504  010F                     	;# 
   505  018C                     	;# 
   506  018D                     	;# 
   507  0000                     	;# 
   508  0001                     	;# 
   509  0002                     	;# 
   510  0003                     	;# 
   511  0004                     	;# 
   512  0005                     	;# 
   513  0006                     	;# 
   514  0007                     	;# 
   515  0008                     	;# 
   516  0009                     	;# 
   517  000A                     	;# 
   518  000B                     	;# 
   519  000C                     	;# 
   520  000D                     	;# 
   521  000E                     	;# 
   522  000E                     	;# 
   523  000F                     	;# 
   524  0010                     	;# 
   525  0011                     	;# 
   526  0012                     	;# 
   527  0013                     	;# 
   528  0014                     	;# 
   529  0015                     	;# 
   530  0015                     	;# 
   531  0016                     	;# 
   532  0017                     	;# 
   533  0018                     	;# 
   534  0019                     	;# 
   535  001A                     	;# 
   536  001B                     	;# 
   537  001B                     	;# 
   538  001C                     	;# 
   539  001D                     	;# 
   540  001E                     	;# 
   541  001F                     	;# 
   542  0081                     	;# 
   543  0085                     	;# 
   544  0086                     	;# 
   545  0087                     	;# 
   546  0088                     	;# 
   547  0089                     	;# 
   548  008C                     	;# 
   549  008D                     	;# 
   550  008E                     	;# 
   551  0091                     	;# 
   552  0092                     	;# 
   553  0093                     	;# 
   554  0094                     	;# 
   555  0098                     	;# 
   556  0099                     	;# 
   557  009C                     	;# 
   558  009D                     	;# 
   559  009E                     	;# 
   560  009F                     	;# 
   561  010C                     	;# 
   562  010D                     	;# 
   563  010E                     	;# 
   564  010F                     	;# 
   565  018C                     	;# 
   566  018D                     	;# 
   567  0000                     	;# 
   568  0001                     	;# 
   569  0002                     	;# 
   570  0003                     	;# 
   571  0004                     	;# 
   572  0005                     	;# 
   573  0006                     	;# 
   574  0007                     	;# 
   575  0008                     	;# 
   576  0009                     	;# 
   577  000A                     	;# 
   578  000B                     	;# 
   579  000C                     	;# 
   580  000D                     	;# 
   581  000E                     	;# 
   582  000E                     	;# 
   583  000F                     	;# 
   584  0010                     	;# 
   585  0011                     	;# 
   586  0012                     	;# 
   587  0013                     	;# 
   588  0014                     	;# 
   589  0015                     	;# 
   590  0015                     	;# 
   591  0016                     	;# 
   592  0017                     	;# 
   593  0018                     	;# 
   594  0019                     	;# 
   595  001A                     	;# 
   596  001B                     	;# 
   597  001B                     	;# 
   598  001C                     	;# 
   599  001D                     	;# 
   600  001E                     	;# 
   601  001F                     	;# 
   602  0081                     	;# 
   603  0085                     	;# 
   604  0086                     	;# 
   605  0087                     	;# 
   606  0088                     	;# 
   607  0089                     	;# 
   608  008C                     	;# 
   609  008D                     	;# 
   610  008E                     	;# 
   611  0091                     	;# 
   612  0092                     	;# 
   613  0093                     	;# 
   614  0094                     	;# 
   615  0098                     	;# 
   616  0099                     	;# 
   617  009C                     	;# 
   618  009D                     	;# 
   619  009E                     	;# 
   620  009F                     	;# 
   621  010C                     	;# 
   622  010D                     	;# 
   623  010E                     	;# 
   624  010F                     	;# 
   625  018C                     	;# 
   626  018D                     	;# 
   627  0000                     	;# 
   628  0001                     	;# 
   629  0002                     	;# 
   630  0003                     	;# 
   631  0004                     	;# 
   632  0005                     	;# 
   633  0006                     	;# 
   634  0007                     	;# 
   635  0008                     	;# 
   636  0009                     	;# 
   637  000A                     	;# 
   638  000B                     	;# 
   639  000C                     	;# 
   640  000D                     	;# 
   641  000E                     	;# 
   642  000E                     	;# 
   643  000F                     	;# 
   644  0010                     	;# 
   645  0011                     	;# 
   646  0012                     	;# 
   647  0013                     	;# 
   648  0014                     	;# 
   649  0015                     	;# 
   650  0015                     	;# 
   651  0016                     	;# 
   652  0017                     	;# 
   653  0018                     	;# 
   654  0019                     	;# 
   655  001A                     	;# 
   656  001B                     	;# 
   657  001B                     	;# 
   658  001C                     	;# 
   659  001D                     	;# 
   660  001E                     	;# 
   661  001F                     	;# 
   662  0081                     	;# 
   663  0085                     	;# 
   664  0086                     	;# 
   665  0087                     	;# 
   666  0088                     	;# 
   667  0089                     	;# 
   668  008C                     	;# 
   669  008D                     	;# 
   670  008E                     	;# 
   671  0091                     	;# 
   672  0092                     	;# 
   673  0093                     	;# 
   674  0094                     	;# 
   675  0098                     	;# 
   676  0099                     	;# 
   677  009C                     	;# 
   678  009D                     	;# 
   679  009E                     	;# 
   680  009F                     	;# 
   681  010C                     	;# 
   682  010D                     	;# 
   683  010E                     	;# 
   684  010F                     	;# 
   685  018C                     	;# 
   686  018D                     	;# 
   687  0000                     	;# 
   688  0001                     	;# 
   689  0002                     	;# 
   690  0003                     	;# 
   691  0004                     	;# 
   692  0005                     	;# 
   693  0006                     	;# 
   694  0007                     	;# 
   695  0008                     	;# 
   696  0009                     	;# 
   697  000A                     	;# 
   698  000B                     	;# 
   699  000C                     	;# 
   700  000D                     	;# 
   701  000E                     	;# 
   702  000E                     	;# 
   703  000F                     	;# 
   704  0010                     	;# 
   705  0011                     	;# 
   706  0012                     	;# 
   707  0013                     	;# 
   708  0014                     	;# 
   709  0015                     	;# 
   710  0015                     	;# 
   711  0016                     	;# 
   712  0017                     	;# 
   713  0018                     	;# 
   714  0019                     	;# 
   715  001A                     	;# 
   716  001B                     	;# 
   717  001B                     	;# 
   718  001C                     	;# 
   719  001D                     	;# 
   720  001E                     	;# 
   721  001F                     	;# 
   722  0081                     	;# 
   723  0085                     	;# 
   724  0086                     	;# 
   725  0087                     	;# 
   726  0088                     	;# 
   727  0089                     	;# 
   728  008C                     	;# 
   729  008D                     	;# 
   730  008E                     	;# 
   731  0091                     	;# 
   732  0092                     	;# 
   733  0093                     	;# 
   734  0094                     	;# 
   735  0098                     	;# 
   736  0099                     	;# 
   737  009C                     	;# 
   738  009D                     	;# 
   739  009E                     	;# 
   740  009F                     	;# 
   741  010C                     	;# 
   742  010D                     	;# 
   743  010E                     	;# 
   744  010F                     	;# 
   745  018C                     	;# 
   746  018D                     	;# 
   747                           
   748                           	psect	idataBANK0
   749  07EE                     __pidataBANK0:
   750                           
   751                           ;initializer for _set_temperature
   752  07EE  343C               	retlw	60
   753  07EF  3400               	retlw	0
   754                           
   755                           ;initializer for _avg_measured_temperature
   756  07F0  3437               	retlw	55
   757  07F1  3400               	retlw	0
   758                           
   759                           ;initializer for __7sd_mask
   760  07F2  34FF               	retlw	255
   761                           
   762                           ;initializer for _state
   763  07F3  3446               	retlw	70
   764                           
   765                           	psect	strings
   766  07A7                     __pstrings:
   767  07A7                     stringtab:
   768  07A7                     __stringtab:
   769  07A7                     stringcode:	
   770                           ;	String table - string pointers are 1 byte each
   771                           
   772  07A7                     stringdir:
   773  07A7  3007               	movlw	high stringdir
   774  07A8  008A               	movwf	10
   775  07A9  0804               	movf	4,w
   776  07AA  0A84               	incf	4,f
   777  07AB  0782               	addwf	2,f
   778  07AC                     __stringbase:
   779  07AC  3400               	retlw	0
   780  07AD                     __end_of__stringtab:
   781  07AD                     _linha:
   782  07AD  3401               	retlw	1
   783  07AE  3402               	retlw	2
   784  07AF  3404               	retlw	4
   785  07B0  3400               	retlw	0
   786  07B1                     __end_of_linha:
   787  0012                     _T2CONbits	set	18
   788  0015                     _CCPR1L	set	21
   789  0017                     _CCP1CON	set	23
   790  000F                     _TMR1H	set	15
   791  000E                     _TMR1L	set	14
   792  0001                     _TMR0	set	1
   793  0005                     _PORTA	set	5
   794  0008                     _PORTDbits	set	8
   795  0006                     _PORTB	set	6
   796  001A                     _RCREG	set	26
   797  000C                     _PIR1bits	set	12
   798  0019                     _TXREG	set	25
   799  0018                     _RCSTAbits	set	24
   800  0009                     _PORTEbits	set	9
   801  0008                     _PORTD	set	8
   802  0007                     _PORTCbits	set	7
   803  001E                     _ADRESH	set	30
   804  001F                     _ADCON0bits	set	31
   805  001F                     _ADCON0	set	31
   806  0032                     _RB2	set	50
   807  0031                     _RB1	set	49
   808  0060                     _TMR1IF	set	96
   809  005A                     _TMR0IF	set	90
   810  0059                     _INTF	set	89
   811  0080                     _TMR1ON	set	128
   812  0085                     _T1CKPS1	set	133
   813  0084                     _T1CKPS0	set	132
   814  005C                     _INTE	set	92
   815  005D                     _TMR0IE	set	93
   816  005E                     _PEIE	set	94
   817  005F                     _GIE	set	95
   818  003A                     _RC2	set	58
   819  0036                     _RB6	set	54
   820  003D                     _RC5	set	61
   821  0092                     _PR2	set	146
   822  0088                     _TRISDbits	set	136
   823  0089                     _TRISE	set	137
   824  0088                     _TRISD	set	136
   825  0087                     _TRISC	set	135
   826  0086                     _TRISB	set	134
   827  0085                     _TRISA	set	133
   828  0081                     _OPTION_REG	set	129
   829  0098                     _TXSTAbits	set	152
   830  0099                     _SPBRG	set	153
   831  0087                     _TRISCbits	set	135
   832  009E                     _ADRESL	set	158
   833  009F                     _ADCON1	set	159
   834  0460                     _TMR1IE	set	1120
   835  010C                     _EEDATA	set	268
   836  010D                     _EEADR	set	269
   837  018D                     _EECON2	set	397
   838  018C                     _EECON1bits	set	396
   839                           
   840                           	psect	cinit
   841  0015                     start_initialization:	
   842                           ; #config settings
   843                           
   844  0015                     __initialization:
   845                           
   846                           ; Initialize objects allocated to BANK0
   847  0015  120A  118A  27EE  120A  118A  	fcall	__pidataBANK0	;fetch initializer
   848  001A  00D2               	movwf	__pdataBANK0& (0+127)
   849  001B  120A  118A  27EF  120A  118A  	fcall	__pidataBANK0+1	;fetch initializer
   850  0020  00D3               	movwf	(__pdataBANK0+1)& (0+127)
   851  0021  120A  118A  27F0  120A  118A  	fcall	__pidataBANK0+2	;fetch initializer
   852  0026  00D4               	movwf	(__pdataBANK0+2)& (0+127)
   853  0027  120A  118A  27F1  120A  118A  	fcall	__pidataBANK0+3	;fetch initializer
   854  002C  00D5               	movwf	(__pdataBANK0+3)& (0+127)
   855  002D  120A  118A  27F2  120A  118A  	fcall	__pidataBANK0+4	;fetch initializer
   856  0032  00D6               	movwf	(__pdataBANK0+4)& (0+127)
   857  0033  120A  118A  27F3  120A  118A  	fcall	__pidataBANK0+5	;fetch initializer
   858  0038  00D7               	movwf	(__pdataBANK0+5)& (0+127)
   859                           
   860                           ; Clear objects allocated to BANK1
   861  0039  1383               	bcf	3,7	;select IRP bank0
   862  003A  30A0               	movlw	low __pbssBANK1
   863  003B  0084               	movwf	4
   864  003C  30BE               	movlw	low (__pbssBANK1+30)
   865  003D  120A  118A  27D6  120A  118A  	fcall	clear_ram0
   866                           
   867                           ; Clear objects allocated to BANK0
   868  0042  3041               	movlw	low __pbssBANK0
   869  0043  0084               	movwf	4
   870  0044  3052               	movlw	low (__pbssBANK0+17)
   871  0045  120A  118A  27D6  120A  118A  	fcall	clear_ram0
   872  004A                     end_of_initialization:	
   873                           ;End of C runtime variable initialization code
   874                           
   875  004A                     __end_of__initialization:
   876  004A  0183               	clrf	3
   877  004B  120A  118A  284E   	ljmp	_main	;jump to C main() function
   878                           
   879                           	psect	bssBANK0
   880  0041                     __pbssBANK0:
   881  0041                     _date:
   882  0041                     	ds	10
   883  004B                     _temps_iterator:
   884  004B                     	ds	2
   885  004D                     _i_7sd:
   886  004D                     	ds	1
   887  004E                     _t_1sec:
   888  004E                     	ds	1
   889  004F                     _n_blinks:
   890  004F                     	ds	1
   891  0050                     _cooler_on:
   892  0050                     	ds	1
   893  0051                     _heater_on:
   894  0051                     	ds	1
   895                           
   896                           	psect	dataBANK0
   897  0052                     __pdataBANK0:
   898  0052                     _set_temperature:
   899  0052                     	ds	2
   900  0054                     _avg_measured_temperature:
   901  0054                     	ds	2
   902  0056                     __7sd_mask:
   903  0056                     	ds	1
   904  0057                     _state:
   905  0057                     	ds	1
   906                           
   907                           	psect	bssBANK1
   908  00A0                     __pbssBANK1:
   909  00A0                     _temps:
   910  00A0                     	ds	20
   911  00B4                     _time:
   912  00B4                     	ds	10
   913                           
   914                           	psect	clrtext
   915  07D6                     clear_ram0:	
   916                           ;	Called with FSR containing the base address, and
   917                           ;	W with the last address+1
   918                           
   919  07D6  0064               	clrwdt	;clear the watchdog before getting into this loop
   920  07D7                     clrloop0:
   921  07D7  0180               	clrf	0	;clear RAM location pointed to by FSR
   922  07D8  0A84               	incf	4,f	;increment pointer
   923  07D9  0604               	xorwf	4,w	;XOR with final address
   924  07DA  1903               	btfsc	3,2	;have we reached the end yet?
   925  07DB  3400               	retlw	0	;all done for this memory range, return
   926  07DC  0604               	xorwf	4,w	;XOR again to restore value
   927  07DD  2FD7               	goto	clrloop0	;do the next byte
   928                           
   929                           	psect	cstackBANK1
   930  00BE                     __pcstackBANK1:
   931  00BE                     ?_e2pext_w:
   932  00BE                     e2pext_w@addr:	
   933                           ; 1 bytes @ 0x0
   934                           
   935                           
   936                           ; 2 bytes @ 0x0
   937  00BE                     	ds	2
   938  00C0                     e2pext_w@val:
   939                           
   940                           ; 1 bytes @ 0x2
   941  00C0                     	ds	1
   942  00C1                     ??_e2pext_w:
   943                           
   944                           ; 1 bytes @ 0x3
   945  00C1                     	ds	2
   946  00C3                     e2pext_w@ah:
   947                           
   948                           ; 1 bytes @ 0x5
   949  00C3                     	ds	1
   950  00C4                     e2pext_w@al:
   951                           
   952                           ; 1 bytes @ 0x6
   953  00C4                     	ds	1
   954  00C5                     e2pext_w@nt:
   955                           
   956                           ; 1 bytes @ 0x7
   957  00C5                     	ds	1
   958  00C6                     e2pext_w@tmp:
   959                           
   960                           ; 2 bytes @ 0x8
   961  00C6                     	ds	2
   962  00C8                     ??_set_temp_exteeprom_check:
   963                           
   964                           ; 1 bytes @ 0xA
   965  00C8                     	ds	2
   966  00CA                     set_temp_exteeprom_check@read_char:
   967                           
   968                           ; 1 bytes @ 0xC
   969  00CA                     	ds	1
   970  00CB                     main@difference:
   971                           
   972                           ; 2 bytes @ 0xD
   973  00CB                     	ds	2
   974                           
   975                           	psect	cstackCOMMON
   976  0070                     __pcstackCOMMON:
   977  0070                     ?_i2c_start:
   978  0070                     ?_i2c_wb:	
   979                           ; 1 bytes @ 0x0
   980                           
   981  0070                     ?_i2c_rb:	
   982                           ; 1 bytes @ 0x0
   983                           
   984  0070                     ?_i2c_stop:	
   985                           ; 1 bytes @ 0x0
   986                           
   987  0070                     ?_adc_init:	
   988                           ; 1 bytes @ 0x0
   989                           
   990  0070                     ??_adc_init:	
   991                           ; 1 bytes @ 0x0
   992                           
   993  0070                     ?_display7s:	
   994                           ; 1 bytes @ 0x0
   995                           
   996  0070                     ??_display7s:	
   997                           ; 1 bytes @ 0x0
   998                           
   999  0070                     ?_delay:	
  1000                           ; 1 bytes @ 0x0
  1001                           
  1002  0070                     ?_i2c_init:	
  1003                           ; 1 bytes @ 0x0
  1004                           
  1005  0070                     ?_activate_heater:	
  1006                           ; 1 bytes @ 0x0
  1007                           
  1008  0070                     ?_deactivate_heater:	
  1009                           ; 1 bytes @ 0x0
  1010                           
  1011  0070                     ?_activate_cooler:	
  1012                           ; 1 bytes @ 0x0
  1013                           
  1014  0070                     ?_deactivate_cooler:	
  1015                           ; 1 bytes @ 0x0
  1016                           
  1017  0070                     ?_show_7sd:	
  1018                           ; 1 bytes @ 0x0
  1019                           
  1020  0070                     ?__1s_handler:	
  1021                           ; 1 bytes @ 0x0
  1022                           
  1023  0070                     ?_adc_sample_and_update_average:	
  1024                           ; 1 bytes @ 0x0
  1025                           
  1026  0070                     ?_interrupts_init:	
  1027                           ; 1 bytes @ 0x0
  1028                           
  1029  0070                     ?_timer0_init:	
  1030                           ; 1 bytes @ 0x0
  1031                           
  1032  0070                     ?_timer1_init:	
  1033                           ; 1 bytes @ 0x0
  1034                           
  1035  0070                     ?_ISR:	
  1036                           ; 1 bytes @ 0x0
  1037                           
  1038  0070                     ?_set_temp_exteeprom_check:	
  1039                           ; 1 bytes @ 0x0
  1040                           
  1041  0070                     ?_main:	
  1042                           ; 1 bytes @ 0x0
  1043                           
  1044  0070                     ?i1_delay:	
  1045                           ; 1 bytes @ 0x0
  1046                           
  1047  0070                     ??i1_delay:	
  1048                           ; 1 bytes @ 0x0
  1049                           
  1050  0070                     ?i1_i2c_start:	
  1051                           ; 1 bytes @ 0x0
  1052                           
  1053  0070                     ??i1_i2c_start:	
  1054                           ; 1 bytes @ 0x0
  1055                           
  1056  0070                     ?i1_i2c_stop:	
  1057                           ; 1 bytes @ 0x0
  1058                           
  1059  0070                     ??i1_i2c_stop:	
  1060                           ; 1 bytes @ 0x0
  1061                           
  1062  0070                     ?i1_i2c_wb:	
  1063                           ; 1 bytes @ 0x0
  1064                           
  1065  0070                     ??i1_i2c_wb:	
  1066                           ; 1 bytes @ 0x0
  1067                           
  1068  0070                     ?i1_i2c_rb:	
  1069                           ; 1 bytes @ 0x0
  1070                           
  1071  0070                     ??i1_i2c_rb:	
  1072                           ; 1 bytes @ 0x0
  1073                           
  1074  0070                     ?_adc_sample:	
  1075                           ; 1 bytes @ 0x0
  1076                           
  1077  0070                     ?___lwmod:	
  1078                           ; 2 bytes @ 0x0
  1079                           
  1080  0070                     display7s@v:	
  1081                           ; 2 bytes @ 0x0
  1082                           
  1083  0070                     ___lwmod@divisor:	
  1084                           ; 1 bytes @ 0x0
  1085                           
  1086                           
  1087                           ; 2 bytes @ 0x0
  1088  0070                     	ds	1
  1089  0071                     i1i2c_rb@ack:
  1090                           
  1091                           ; 1 bytes @ 0x1
  1092  0071                     	ds	1
  1093  0072                     ??_adc_sample:
  1094  0072                     i1i2c_wb@val:	
  1095                           ; 1 bytes @ 0x2
  1096                           
  1097  0072                     i1i2c_rb@ret:	
  1098                           ; 1 bytes @ 0x2
  1099                           
  1100  0072                     ___lwmod@dividend:	
  1101                           ; 1 bytes @ 0x2
  1102                           
  1103                           
  1104                           ; 2 bytes @ 0x2
  1105  0072                     	ds	1
  1106  0073                     i1i2c_wb@i:
  1107  0073                     i1i2c_rb@i:	
  1108                           ; 1 bytes @ 0x3
  1109                           
  1110                           
  1111                           ; 1 bytes @ 0x3
  1112  0073                     	ds	1
  1113  0074                     ??___lwmod:
  1114  0074                     ?i1_e2pext_r:	
  1115                           ; 1 bytes @ 0x4
  1116                           
  1117  0074                     ___lwmod@counter:	
  1118                           ; 1 bytes @ 0x4
  1119                           
  1120  0074                     i1e2pext_r@addr:	
  1121                           ; 1 bytes @ 0x4
  1122                           
  1123                           
  1124                           ; 2 bytes @ 0x4
  1125  0074                     	ds	2
  1126  0076                     ??i1_e2pext_r:
  1127  0076                     i1e2pext_r@ret:	
  1128                           ; 1 bytes @ 0x6
  1129                           
  1130                           
  1131                           ; 1 bytes @ 0x6
  1132  0076                     	ds	1
  1133  0077                     i1e2pext_r@al:
  1134                           
  1135                           ; 1 bytes @ 0x7
  1136  0077                     	ds	1
  1137  0078                     i1e2pext_r@ah:
  1138                           
  1139                           ; 1 bytes @ 0x8
  1140  0078                     	ds	1
  1141  0079                     ?i1_e2pext_w:
  1142  0079                     adc_sample@canal:	
  1143                           ; 1 bytes @ 0x9
  1144                           
  1145  0079                     i1e2pext_w@addr:	
  1146                           ; 1 bytes @ 0x9
  1147                           
  1148                           
  1149                           ; 2 bytes @ 0x9
  1150  0079                     	ds	1
  1151  007A                     ?___wmul:
  1152  007A                     ___wmul@multiplier:	
  1153                           ; 2 bytes @ 0xA
  1154                           
  1155                           
  1156                           ; 2 bytes @ 0xA
  1157  007A                     	ds	1
  1158  007B                     i1e2pext_w@val:
  1159                           
  1160                           ; 1 bytes @ 0xB
  1161  007B                     	ds	1
  1162  007C                     ??i1_e2pext_w:
  1163  007C                     ___wmul@multiplicand:	
  1164                           ; 1 bytes @ 0xC
  1165                           
  1166                           
  1167                           ; 2 bytes @ 0xC
  1168  007C                     	ds	2
  1169  007E                     ??_show_7sd:
  1170  007E                     ??__1s_handler:	
  1171                           ; 1 bytes @ 0xE
  1172                           
  1173  007E                     ??___wmul:	
  1174                           ; 1 bytes @ 0xE
  1175                           
  1176  007E                     ??___lwdiv:	
  1177                           ; 1 bytes @ 0xE
  1178                           
  1179                           
  1180                           	psect	cstackBANK0
  1181  0020                     __pcstackBANK0:	
  1182                           ; 1 bytes @ 0xE
  1183                           
  1184  0020                     i1e2pext_w@ah:
  1185  0020                     ___wmul@product:	
  1186                           ; 1 bytes @ 0x0
  1187                           
  1188                           
  1189                           ; 2 bytes @ 0x0
  1190  0020                     	ds	1
  1191  0021                     i1e2pext_w@al:
  1192                           
  1193                           ; 1 bytes @ 0x1
  1194  0021                     	ds	1
  1195  0022                     ?___lwdiv:
  1196  0022                     i1e2pext_w@nt:	
  1197                           ; 2 bytes @ 0x2
  1198                           
  1199  0022                     ___lwdiv@divisor:	
  1200                           ; 1 bytes @ 0x2
  1201                           
  1202                           
  1203                           ; 2 bytes @ 0x2
  1204  0022                     	ds	1
  1205  0023                     i1e2pext_w@tmp:
  1206                           
  1207                           ; 2 bytes @ 0x3
  1208  0023                     	ds	1
  1209  0024                     ___lwdiv@dividend:
  1210                           
  1211                           ; 2 bytes @ 0x4
  1212  0024                     	ds	1
  1213  0025                     __1s_handler$500:
  1214                           
  1215                           ; 2 bytes @ 0x5
  1216  0025                     	ds	1
  1217  0026                     ___lwdiv@quotient:
  1218                           
  1219                           ; 2 bytes @ 0x6
  1220  0026                     	ds	2
  1221  0028                     ___lwdiv@counter:
  1222                           
  1223                           ; 1 bytes @ 0x8
  1224  0028                     	ds	1
  1225  0029                     ?_calc_avg:
  1226                           
  1227                           ; 2 bytes @ 0x9
  1228  0029                     	ds	2
  1229  002B                     ??_calc_avg:
  1230                           
  1231                           ; 1 bytes @ 0xB
  1232  002B                     	ds	3
  1233  002E                     calc_avg@avg:
  1234                           
  1235                           ; 2 bytes @ 0xE
  1236  002E                     	ds	2
  1237  0030                     calc_avg@i:
  1238                           
  1239                           ; 1 bytes @ 0x10
  1240  0030                     	ds	1
  1241  0031                     ??_adc_sample_and_update_average:
  1242                           
  1243                           ; 1 bytes @ 0x11
  1244  0031                     	ds	1
  1245  0032                     ??_ISR:
  1246                           
  1247                           ; 1 bytes @ 0x12
  1248  0032                     	ds	4
  1249  0036                     _ISR$515:
  1250                           
  1251                           ; 2 bytes @ 0x16
  1252  0036                     	ds	2
  1253  0038                     ??_i2c_start:
  1254  0038                     ??_i2c_wb:	
  1255                           ; 1 bytes @ 0x18
  1256                           
  1257  0038                     ??_i2c_rb:	
  1258                           ; 1 bytes @ 0x18
  1259                           
  1260  0038                     ??_i2c_stop:	
  1261                           ; 1 bytes @ 0x18
  1262                           
  1263  0038                     ??_delay:	
  1264                           ; 1 bytes @ 0x18
  1265                           
  1266  0038                     ??_i2c_init:	
  1267                           ; 1 bytes @ 0x18
  1268                           
  1269  0038                     ??_activate_heater:	
  1270                           ; 1 bytes @ 0x18
  1271                           
  1272  0038                     ??_deactivate_heater:	
  1273                           ; 1 bytes @ 0x18
  1274                           
  1275  0038                     ??_activate_cooler:	
  1276                           ; 1 bytes @ 0x18
  1277                           
  1278  0038                     ??_deactivate_cooler:	
  1279                           ; 1 bytes @ 0x18
  1280                           
  1281  0038                     ??_interrupts_init:	
  1282                           ; 1 bytes @ 0x18
  1283                           
  1284  0038                     ??_timer0_init:	
  1285                           ; 1 bytes @ 0x18
  1286                           
  1287  0038                     ??_timer1_init:	
  1288                           ; 1 bytes @ 0x18
  1289                           
  1290                           
  1291                           ; 1 bytes @ 0x18
  1292  0038                     	ds	1
  1293  0039                     i2c_rb@ack:
  1294                           
  1295                           ; 1 bytes @ 0x19
  1296  0039                     	ds	1
  1297  003A                     i2c_wb@val:
  1298  003A                     i2c_rb@ret:	
  1299                           ; 1 bytes @ 0x1A
  1300                           
  1301                           
  1302                           ; 1 bytes @ 0x1A
  1303  003A                     	ds	1
  1304  003B                     i2c_wb@i:
  1305  003B                     i2c_rb@i:	
  1306                           ; 1 bytes @ 0x1B
  1307                           
  1308                           
  1309                           ; 1 bytes @ 0x1B
  1310  003B                     	ds	1
  1311  003C                     ?_e2pext_r:
  1312  003C                     e2pext_r@addr:	
  1313                           ; 1 bytes @ 0x1C
  1314                           
  1315                           
  1316                           ; 2 bytes @ 0x1C
  1317  003C                     	ds	2
  1318  003E                     ??_e2pext_r:
  1319  003E                     e2pext_r@ret:	
  1320                           ; 1 bytes @ 0x1E
  1321                           
  1322                           
  1323                           ; 1 bytes @ 0x1E
  1324  003E                     	ds	1
  1325  003F                     e2pext_r@al:
  1326                           
  1327                           ; 1 bytes @ 0x1F
  1328  003F                     	ds	1
  1329  0040                     e2pext_r@ah:
  1330                           
  1331                           ; 1 bytes @ 0x20
  1332  0040                     	ds	1
  1333  0041                     ??_main:
  1334                           
  1335                           	psect	maintext
  1336  004E                     __pmaintext:	
  1337                           ; 1 bytes @ 0x21
  1338 ;;
  1339 ;;Main: autosize = 0, tempsize = 0, incstack = 0, save=0
  1340 ;;
  1341 ;; *************** function _main *****************
  1342 ;; Defined at:
  1343 ;;		line 316 in file "teste_b4.c"
  1344 ;; Parameters:    Size  Location     Type
  1345 ;;		None
  1346 ;; Auto vars:     Size  Location     Type
  1347 ;;  difference      2   13[BANK1 ] int 
  1348 ;; Return value:  Size  Location     Type
  1349 ;;                  1    wreg      void 
  1350 ;; Registers used:
  1351 ;;		wreg, status,2, status,0, btemp+1, pclath, cstack
  1352 ;; Tracked objects:
  1353 ;;		On entry : B00/0
  1354 ;;		On exit  : 0/0
  1355 ;;		Unchanged: 0/0
  1356 ;; Data sizes:     COMMON   BANK0   BANK1   BANK3   BANK2
  1357 ;;      Params:         0       0       0       0       0
  1358 ;;      Locals:         0       0       2       0       0
  1359 ;;      Temps:          0       0       0       0       0
  1360 ;;      Totals:         0       0       2       0       0
  1361 ;;Total ram usage:        2 bytes
  1362 ;; Hardware stack levels required when called:   11
  1363 ;; This function calls:
  1364 ;;		_activate_cooler
  1365 ;;		_activate_heater
  1366 ;;		_deactivate_cooler
  1367 ;;		_deactivate_heater
  1368 ;;		_i2c_init
  1369 ;;		_interrupts_init
  1370 ;;		_set_temp_exteeprom_check
  1371 ;;		_timer0_init
  1372 ;;		_timer1_init
  1373 ;; This function is called by:
  1374 ;;		Startup code after reset
  1375 ;; This function uses a non-reentrant model
  1376 ;;
  1377                           
  1378                           
  1379                           ;psect for function _main
  1380  004E                     _main:
  1381  004E                     l2990:	
  1382                           ;incstack = 0
  1383 ;; hardware stack exceeded
  1384                           ; Regs used in _main: [wreg+status,2+status,0+btemp+1+pclath+cstack]
  1385                           
  1386                           
  1387                           ;teste_b4.c: 319: int difference;;teste_b4.c: 322: TRISA = 0x07;
  1388  004E  3007               	movlw	7
  1389  004F  1683               	bsf	3,5	;RP0=1, select bank1
  1390  0050  1303               	bcf	3,6	;RP1=0, select bank1
  1391  0051  0085               	movwf	5	;volatile
  1392                           
  1393                           ;teste_b4.c: 324: TRISB = 0x07;
  1394  0052  3007               	movlw	7
  1395  0053  0086               	movwf	6	;volatile
  1396  0054                     l2992:
  1397                           
  1398                           ;teste_b4.c: 326: TRISC = 0x00;
  1399  0054  0187               	clrf	7	;volatile
  1400  0055                     l2994:
  1401                           
  1402                           ;teste_b4.c: 328: TRISD = 0x00;
  1403  0055  0188               	clrf	8	;volatile
  1404  0056                     l2996:
  1405                           
  1406                           ;teste_b4.c: 330: TRISE = 0x00;
  1407  0056  0189               	clrf	9	;volatile
  1408  0057                     l2998:
  1409                           
  1410                           ;teste_b4.c: 333: i2c_init();
  1411  0057  120A  118A  27E6  120A  118A  	fcall	_i2c_init
  1412  005C                     l3000:
  1413                           
  1414                           ;teste_b4.c: 334: timer1_init();
  1415  005C  120A  118A  27B1  120A  118A  	fcall	_timer1_init
  1416  0061                     l3002:
  1417                           
  1418                           ;teste_b4.c: 335: timer0_init();
  1419  0061  120A  118A  27BB  120A  118A  	fcall	_timer0_init
  1420  0066                     l3004:
  1421                           
  1422                           ;teste_b4.c: 338: interrupts_init();
  1423  0066  120A  118A  27DE  120A  118A  	fcall	_interrupts_init
  1424  006B                     l3006:
  1425                           
  1426                           ;teste_b4.c: 341: set_temp_exteeprom_check();
  1427  006B  120A  118A  23EA  120A  118A  	fcall	_set_temp_exteeprom_check
  1428  0070                     l3008:
  1429                           
  1430                           ;teste_b4.c: 348: {;teste_b4.c: 349: if (state != 'F')
  1431  0070  3046               	movlw	70
  1432  0071  1283               	bcf	3,5	;RP0=0, select bank0
  1433  0072  1303               	bcf	3,6	;RP1=0, select bank0
  1434  0073  0657               	xorwf	_state,w
  1435  0074  1903               	btfsc	3,2
  1436  0075  2877               	goto	u2151
  1437  0076  2878               	goto	u2150
  1438  0077                     u2151:
  1439  0077  28FE               	goto	l3050
  1440  0078                     u2150:
  1441  0078                     l3010:
  1442                           
  1443                           ;teste_b4.c: 350: {;teste_b4.c: 351: if (!RB1)
  1444  0078  1886               	btfsc	6,1	;volatile
  1445  0079  287B               	goto	u2161
  1446  007A  287C               	goto	u2160
  1447  007B                     u2161:
  1448  007B  289E               	goto	l441
  1449  007C                     u2160:
  1450  007C                     l3012:
  1451                           
  1452                           ;teste_b4.c: 352: {;teste_b4.c: 353: n_blinks = 0;
  1453  007C  01CF               	clrf	_n_blinks
  1454  007D                     l442:	
  1455                           ;teste_b4.c: 355: ;
  1456                           
  1457  007D  1C86               	btfss	6,1	;volatile
  1458  007E  2880               	goto	u2171
  1459  007F  2881               	goto	u2170
  1460  0080                     u2171:
  1461  0080  287D               	goto	l442
  1462  0081                     u2170:
  1463  0081                     l3014:
  1464                           
  1465                           ;teste_b4.c: 357: if (state == 'S' && set_temperature >= 40)
  1466  0081  3053               	movlw	83
  1467  0082  0657               	xorwf	_state,w
  1468  0083  1D03               	btfss	3,2
  1469  0084  2886               	goto	u2181
  1470  0085  2887               	goto	u2180
  1471  0086                     u2181:
  1472  0086  2899               	goto	l3024
  1473  0087                     u2180:
  1474  0087                     l3016:
  1475  0087  3000               	movlw	0
  1476  0088  0253               	subwf	_set_temperature+1,w
  1477  0089  3028               	movlw	40
  1478  008A  1903               	skipnz
  1479  008B  0252               	subwf	_set_temperature,w
  1480  008C  1C03               	skipc
  1481  008D  288F               	goto	u2191
  1482  008E  2890               	goto	u2190
  1483  008F                     u2191:
  1484  008F  2899               	goto	l3024
  1485  0090                     u2190:
  1486  0090                     l3018:
  1487                           
  1488                           ;teste_b4.c: 358: {;teste_b4.c: 359: GIE = 0;
  1489  0090  138B               	bcf	11,7	;volatile
  1490  0091                     l3020:
  1491                           
  1492                           ;teste_b4.c: 360: set_temperature -= 5;
  1493  0091  3005               	movlw	5
  1494  0092  02D2               	subwf	_set_temperature,f
  1495  0093  3000               	movlw	0
  1496  0094  1C03               	skipc
  1497  0095  03D3               	decf	_set_temperature+1,f
  1498  0096  02D3               	subwf	_set_temperature+1,f
  1499  0097                     l3022:
  1500                           
  1501                           ;teste_b4.c: 361: GIE = 1;
  1502  0097  178B               	bsf	11,7	;volatile
  1503                           
  1504                           ;teste_b4.c: 362: }
  1505  0098  28BE               	goto	l3040
  1506  0099                     l3024:
  1507                           
  1508                           ;teste_b4.c: 363: else;teste_b4.c: 364: state = 'S';
  1509  0099  3053               	movlw	83
  1510  009A  00FF               	movwf	btemp+1
  1511  009B  087F               	movf	btemp+1,w
  1512  009C  00D7               	movwf	_state
  1513  009D  28BE               	goto	l3040
  1514  009E                     l441:
  1515                           
  1516                           ;teste_b4.c: 366: else if (!RB2)
  1517  009E  1906               	btfsc	6,2	;volatile
  1518  009F  28A1               	goto	u2201
  1519  00A0  28A2               	goto	u2200
  1520  00A1                     u2201:
  1521  00A1  28BE               	goto	l3040
  1522  00A2                     u2200:
  1523  00A2                     l3026:
  1524                           
  1525                           ;teste_b4.c: 367: {;teste_b4.c: 368: n_blinks = 0;
  1526  00A2  01CF               	clrf	_n_blinks
  1527  00A3                     l449:	
  1528                           ;teste_b4.c: 370: ;
  1529                           
  1530  00A3  1D06               	btfss	6,2	;volatile
  1531  00A4  28A6               	goto	u2211
  1532  00A5  28A7               	goto	u2210
  1533  00A6                     u2211:
  1534  00A6  28A3               	goto	l449
  1535  00A7                     u2210:
  1536  00A7                     l3028:
  1537                           
  1538                           ;teste_b4.c: 371: if (state == 'S' && set_temperature <= 70)
  1539  00A7  3053               	movlw	83
  1540  00A8  0657               	xorwf	_state,w
  1541  00A9  1D03               	btfss	3,2
  1542  00AA  28AC               	goto	u2221
  1543  00AB  28AD               	goto	u2220
  1544  00AC                     u2221:
  1545  00AC  2899               	goto	l3024
  1546  00AD                     u2220:
  1547  00AD                     l3030:
  1548  00AD  3000               	movlw	0
  1549  00AE  0253               	subwf	_set_temperature+1,w
  1550  00AF  3047               	movlw	71
  1551  00B0  1903               	skipnz
  1552  00B1  0252               	subwf	_set_temperature,w
  1553  00B2  1803               	skipnc
  1554  00B3  28B5               	goto	u2231
  1555  00B4  28B6               	goto	u2230
  1556  00B5                     u2231:
  1557  00B5  2899               	goto	l3024
  1558  00B6                     u2230:
  1559  00B6                     l3032:
  1560                           
  1561                           ;teste_b4.c: 372: {;teste_b4.c: 373: GIE = 0;
  1562  00B6  138B               	bcf	11,7	;volatile
  1563  00B7                     l3034:
  1564                           
  1565                           ;teste_b4.c: 374: set_temperature += 5;
  1566  00B7  3005               	movlw	5
  1567  00B8  07D2               	addwf	_set_temperature,f
  1568  00B9  1803               	skipnc
  1569  00BA  0AD3               	incf	_set_temperature+1,f
  1570  00BB  3000               	movlw	0
  1571  00BC  07D3               	addwf	_set_temperature+1,f
  1572  00BD  2897               	goto	l3022
  1573  00BE                     l3040:
  1574                           
  1575                           ;teste_b4.c: 379: };teste_b4.c: 382: difference = set_temperature - avg_measured_tempera
      +                          ture;
  1576  00BE  0854               	movf	_avg_measured_temperature,w
  1577  00BF  0252               	subwf	_set_temperature,w
  1578  00C0  1683               	bsf	3,5	;RP0=1, select bank1
  1579  00C1  1303               	bcf	3,6	;RP1=0, select bank1
  1580  00C2  00CB               	movwf	main@difference^(0+128)
  1581  00C3  1283               	bcf	3,5	;RP0=0, select bank0
  1582  00C4  1303               	bcf	3,6	;RP1=0, select bank0
  1583  00C5  0855               	movf	_avg_measured_temperature+1,w
  1584  00C6  1C03               	skipc
  1585  00C7  0A55               	incf	_avg_measured_temperature+1,w
  1586  00C8  0253               	subwf	_set_temperature+1,w
  1587  00C9  1683               	bsf	3,5	;RP0=1, select bank1
  1588  00CA  1303               	bcf	3,6	;RP1=0, select bank1
  1589  00CB  00CC               	movwf	(main@difference+1)^(0+128)
  1590  00CC                     l3042:
  1591                           
  1592                           ;teste_b4.c: 383: if (difference >= 5)
  1593  00CC  084C               	movf	(main@difference+1)^(0+128),w
  1594  00CD  3A80               	xorlw	128
  1595  00CE  00FF               	movwf	btemp+1
  1596  00CF  3080               	movlw	128
  1597  00D0  027F               	subwf	btemp+1,w
  1598  00D1  1D03               	skipz
  1599  00D2  28D5               	goto	u2245
  1600  00D3  3005               	movlw	5
  1601  00D4  024B               	subwf	main@difference^(0+128),w
  1602  00D5                     u2245:
  1603  00D5  1C03               	skipc
  1604  00D6  28D8               	goto	u2241
  1605  00D7  28D9               	goto	u2240
  1606  00D8                     u2241:
  1607  00D8  28E4               	goto	l3046
  1608  00D9                     u2240:
  1609  00D9                     l3044:
  1610                           
  1611                           ;teste_b4.c: 384: {;teste_b4.c: 385: activate_heater();
  1612  00D9  120A  118A  278F  120A  118A  	fcall	_activate_heater
  1613                           
  1614                           ;teste_b4.c: 386: deactivate_cooler();
  1615  00DE  120A  118A  2727  120A  118A  	fcall	_deactivate_cooler
  1616                           
  1617                           ;teste_b4.c: 387: }
  1618  00E3  2870               	goto	l3008
  1619  00E4                     l3046:
  1620                           
  1621                           ;teste_b4.c: 388: else if (difference <= -5)
  1622  00E4  1683               	bsf	3,5	;RP0=1, select bank1
  1623  00E5  1303               	bcf	3,6	;RP1=0, select bank1
  1624  00E6  084C               	movf	(main@difference+1)^(0+128),w
  1625  00E7  3A80               	xorlw	128
  1626  00E8  00FF               	movwf	btemp+1
  1627  00E9  307F               	movlw	127
  1628  00EA  027F               	subwf	btemp+1,w
  1629  00EB  1D03               	skipz
  1630  00EC  28EF               	goto	u2255
  1631  00ED  30FC               	movlw	252
  1632  00EE  024B               	subwf	main@difference^(0+128),w
  1633  00EF                     u2255:
  1634  00EF  1803               	skipnc
  1635  00F0  28F2               	goto	u2251
  1636  00F1  28F3               	goto	u2250
  1637  00F2                     u2251:
  1638  00F2  28FE               	goto	l3050
  1639  00F3                     u2250:
  1640  00F3                     l3048:
  1641                           
  1642                           ;teste_b4.c: 389: {;teste_b4.c: 390: deactivate_heater();
  1643  00F3  120A  118A  2707  120A  118A  	fcall	_deactivate_heater
  1644                           
  1645                           ;teste_b4.c: 391: activate_cooler();
  1646  00F8  120A  118A  279B  120A  118A  	fcall	_activate_cooler
  1647                           
  1648                           ;teste_b4.c: 392: }
  1649  00FD  2870               	goto	l3008
  1650  00FE                     l3050:
  1651                           
  1652                           ;teste_b4.c: 393: else;teste_b4.c: 394: {;teste_b4.c: 395: deactivate_heater();
  1653  00FE  120A  118A  2707  120A  118A  	fcall	_deactivate_heater
  1654                           
  1655                           ;teste_b4.c: 396: deactivate_cooler();
  1656  0103  120A  118A  2727  120A  118A  	fcall	_deactivate_cooler
  1657  0108  2870               	goto	l3008
  1658  0109  120A  118A  2812   	ljmp	start
  1659  010C                     __end_of_main:
  1660                           
  1661                           	psect	text1
  1662  07B1                     __ptext1:	
  1663 ;; *************** function _timer1_init *****************
  1664 ;; Defined at:
  1665 ;;		line 216 in file "teste_b4.c"
  1666 ;; Parameters:    Size  Location     Type
  1667 ;;		None
  1668 ;; Auto vars:     Size  Location     Type
  1669 ;;		None
  1670 ;; Return value:  Size  Location     Type
  1671 ;;                  1    wreg      void 
  1672 ;; Registers used:
  1673 ;;		wreg
  1674 ;; Tracked objects:
  1675 ;;		On entry : 0/0
  1676 ;;		On exit  : 0/0
  1677 ;;		Unchanged: 0/0
  1678 ;; Data sizes:     COMMON   BANK0   BANK1   BANK3   BANK2
  1679 ;;      Params:         0       0       0       0       0
  1680 ;;      Locals:         0       0       0       0       0
  1681 ;;      Temps:          0       0       0       0       0
  1682 ;;      Totals:         0       0       0       0       0
  1683 ;;Total ram usage:        0 bytes
  1684 ;; Hardware stack levels used:    1
  1685 ;; Hardware stack levels required when called:    6
  1686 ;; This function calls:
  1687 ;;		Nothing
  1688 ;; This function is called by:
  1689 ;;		_main
  1690 ;; This function uses a non-reentrant model
  1691 ;;
  1692                           
  1693                           
  1694                           ;psect for function _timer1_init
  1695  07B1                     _timer1_init:
  1696  07B1                     l2922:	
  1697                           ;incstack = 0
  1698                           ; Regs used in _timer1_init: [wreg]
  1699                           
  1700                           
  1701                           ;teste_b4.c: 220: T1CKPS0 = 1;
  1702  07B1  1283               	bcf	3,5	;RP0=0, select bank0
  1703  07B2  1303               	bcf	3,6	;RP1=0, select bank0
  1704  07B3  1610               	bsf	16,4	;volatile
  1705                           
  1706                           ;teste_b4.c: 221: T1CKPS1 = 1;
  1707  07B4  1690               	bsf	16,5	;volatile
  1708  07B5                     l2924:
  1709                           
  1710                           ;teste_b4.c: 224: TMR1L = 0xdc;
  1711  07B5  30DC               	movlw	220
  1712  07B6  008E               	movwf	14	;volatile
  1713                           
  1714                           ;teste_b4.c: 225: TMR1H = 0x0b;
  1715  07B7  300B               	movlw	11
  1716  07B8  008F               	movwf	15	;volatile
  1717  07B9                     l2926:
  1718                           
  1719                           ;teste_b4.c: 228: TMR1ON = 1;
  1720  07B9  1410               	bsf	16,0	;volatile
  1721  07BA                     l413:
  1722  07BA  0008               	return
  1723  07BB                     __end_of_timer1_init:
  1724                           
  1725                           	psect	text2
  1726  07BB                     __ptext2:	
  1727 ;; *************** function _timer0_init *****************
  1728 ;; Defined at:
  1729 ;;		line 206 in file "teste_b4.c"
  1730 ;; Parameters:    Size  Location     Type
  1731 ;;		None
  1732 ;; Auto vars:     Size  Location     Type
  1733 ;;		None
  1734 ;; Return value:  Size  Location     Type
  1735 ;;                  1    wreg      void 
  1736 ;; Registers used:
  1737 ;;		wreg
  1738 ;; Tracked objects:
  1739 ;;		On entry : 0/0
  1740 ;;		On exit  : 0/0
  1741 ;;		Unchanged: 0/0
  1742 ;; Data sizes:     COMMON   BANK0   BANK1   BANK3   BANK2
  1743 ;;      Params:         0       0       0       0       0
  1744 ;;      Locals:         0       0       0       0       0
  1745 ;;      Temps:          0       0       0       0       0
  1746 ;;      Totals:         0       0       0       0       0
  1747 ;;Total ram usage:        0 bytes
  1748 ;; Hardware stack levels used:    1
  1749 ;; Hardware stack levels required when called:    6
  1750 ;; This function calls:
  1751 ;;		Nothing
  1752 ;; This function is called by:
  1753 ;;		_main
  1754 ;; This function uses a non-reentrant model
  1755 ;;
  1756                           
  1757                           
  1758                           ;psect for function _timer0_init
  1759  07BB                     _timer0_init:
  1760  07BB                     l2920:	
  1761                           ;incstack = 0
  1762                           ; Regs used in _timer0_init: [wreg]
  1763                           
  1764                           
  1765                           ;teste_b4.c: 209: OPTION_REG = 0b00000111;
  1766  07BB  3007               	movlw	7
  1767  07BC  1683               	bsf	3,5	;RP0=1, select bank1
  1768  07BD  1303               	bcf	3,6	;RP1=0, select bank1
  1769  07BE  0081               	movwf	1	;volatile
  1770                           
  1771                           ;teste_b4.c: 212: TMR0 = 61;
  1772  07BF  303D               	movlw	61
  1773  07C0  1283               	bcf	3,5	;RP0=0, select bank0
  1774  07C1  1303               	bcf	3,6	;RP1=0, select bank0
  1775  07C2  0081               	movwf	1	;volatile
  1776  07C3                     l410:
  1777  07C3  0008               	return
  1778  07C4                     __end_of_timer0_init:
  1779                           
  1780                           	psect	text3
  1781  03EA                     __ptext3:	
  1782 ;; *************** function _set_temp_exteeprom_check *****************
  1783 ;; Defined at:
  1784 ;;		line 301 in file "teste_b4.c"
  1785 ;; Parameters:    Size  Location     Type
  1786 ;;		None
  1787 ;; Auto vars:     Size  Location     Type
  1788 ;;  read_char       1   12[BANK1 ] unsigned char 
  1789 ;; Return value:  Size  Location     Type
  1790 ;;                  1    wreg      void 
  1791 ;; Registers used:
  1792 ;;		wreg, status,2, status,0, btemp+1, pclath, cstack
  1793 ;; Tracked objects:
  1794 ;;		On entry : 0/0
  1795 ;;		On exit  : 0/0
  1796 ;;		Unchanged: 0/0
  1797 ;; Data sizes:     COMMON   BANK0   BANK1   BANK3   BANK2
  1798 ;;      Params:         0       0       0       0       0
  1799 ;;      Locals:         0       0       1       0       0
  1800 ;;      Temps:          0       0       2       0       0
  1801 ;;      Totals:         0       0       3       0       0
  1802 ;;Total ram usage:        3 bytes
  1803 ;; Hardware stack levels used:    1
  1804 ;; Hardware stack levels required when called:   10
  1805 ;; This function calls:
  1806 ;;		_e2pext_r
  1807 ;;		_e2pext_w
  1808 ;; This function is called by:
  1809 ;;		_main
  1810 ;; This function uses a non-reentrant model
  1811 ;;
  1812                           
  1813                           
  1814                           ;psect for function _set_temp_exteeprom_check
  1815  03EA                     _set_temp_exteeprom_check:
  1816  03EA                     l2928:	
  1817                           ;incstack = 0
  1818 ;; hardware stack exceeded
  1819                           ; Regs used in _set_temp_exteeprom_check: [wreg+status,2+status,0+btemp+1+pclath+cstack]
  1820                           
  1821                           
  1822                           ;teste_b4.c: 303: unsigned char read_char;;teste_b4.c: 304: read_char = e2pext_r(11);
  1823  03EA  300B               	movlw	11
  1824  03EB  1283               	bcf	3,5	;RP0=0, select bank0
  1825  03EC  1303               	bcf	3,6	;RP1=0, select bank0
  1826  03ED  00BC               	movwf	e2pext_r@addr
  1827  03EE  3000               	movlw	0
  1828  03EF  00BD               	movwf	e2pext_r@addr+1
  1829  03F0  120A  118A  233A  120A  118A  	fcall	_e2pext_r
  1830  03F5  00FF               	movwf	btemp+1
  1831  03F6  087F               	movf	btemp+1,w
  1832  03F7  1683               	bsf	3,5	;RP0=1, select bank1
  1833  03F8  1303               	bcf	3,6	;RP1=0, select bank1
  1834  03F9  00CA               	movwf	set_temp_exteeprom_check@read_char^(0+128)
  1835  03FA                     l2930:
  1836                           
  1837                           ;teste_b4.c: 305: if (read_char == 0x33)
  1838  03FA  3033               	movlw	51
  1839  03FB  064A               	xorwf	set_temp_exteeprom_check@read_char^(0+128),w
  1840  03FC  1D03               	btfss	3,2
  1841  03FD  2BFF               	goto	u2141
  1842  03FE  2C00               	goto	u2140
  1843  03FF                     u2141:
  1844  03FF  2C1A               	goto	l2934
  1845  0400                     u2140:
  1846  0400                     l2932:
  1847                           
  1848                           ;teste_b4.c: 306: {;teste_b4.c: 307: set_temperature = e2pext_r(10);
  1849  0400  300A               	movlw	10
  1850  0401  1283               	bcf	3,5	;RP0=0, select bank0
  1851  0402  1303               	bcf	3,6	;RP1=0, select bank0
  1852  0403  00BC               	movwf	e2pext_r@addr
  1853  0404  3000               	movlw	0
  1854  0405  00BD               	movwf	e2pext_r@addr+1
  1855  0406  120A  118A  233A  120A  118A  	fcall	_e2pext_r
  1856  040B  1683               	bsf	3,5	;RP0=1, select bank1
  1857  040C  1303               	bcf	3,6	;RP1=0, select bank1
  1858  040D  00C8               	movwf	??_set_temp_exteeprom_check^(0+128)
  1859  040E  01C9               	clrf	(??_set_temp_exteeprom_check^(0+128)+1)
  1860  040F  0848               	movf	??_set_temp_exteeprom_check^(0+128),w
  1861  0410  1283               	bcf	3,5	;RP0=0, select bank0
  1862  0411  1303               	bcf	3,6	;RP1=0, select bank0
  1863  0412  00D2               	movwf	_set_temperature
  1864  0413  1683               	bsf	3,5	;RP0=1, select bank1
  1865  0414  1303               	bcf	3,6	;RP1=0, select bank1
  1866  0415  0849               	movf	(??_set_temp_exteeprom_check+1)^(0+128),w
  1867  0416  1283               	bcf	3,5	;RP0=0, select bank0
  1868  0417  1303               	bcf	3,6	;RP1=0, select bank0
  1869  0418  00D3               	movwf	_set_temperature+1
  1870                           
  1871                           ;teste_b4.c: 308: }
  1872  0419  2C3A               	goto	l434
  1873  041A                     l2934:
  1874                           
  1875                           ;teste_b4.c: 309: else;teste_b4.c: 310: {;teste_b4.c: 311: e2pext_w(10, set_temperature)
      +                          ;
  1876  041A  300A               	movlw	10
  1877  041B  00BE               	movwf	e2pext_w@addr^(0+128)
  1878  041C  3000               	movlw	0
  1879  041D  00BF               	movwf	(e2pext_w@addr^(0+128)+1)
  1880  041E  1283               	bcf	3,5	;RP0=0, select bank0
  1881  041F  1303               	bcf	3,6	;RP1=0, select bank0
  1882  0420  0852               	movf	_set_temperature,w
  1883  0421  00FF               	movwf	btemp+1
  1884  0422  087F               	movf	btemp+1,w
  1885  0423  1683               	bsf	3,5	;RP0=1, select bank1
  1886  0424  1303               	bcf	3,6	;RP1=0, select bank1
  1887  0425  00C0               	movwf	e2pext_w@val^(0+128)
  1888  0426  120A  118A  2210  120A  118A  	fcall	_e2pext_w
  1889                           
  1890                           ;teste_b4.c: 312: e2pext_w(11, 0x33);
  1891  042B  300B               	movlw	11
  1892  042C  1683               	bsf	3,5	;RP0=1, select bank1
  1893  042D  1303               	bcf	3,6	;RP1=0, select bank1
  1894  042E  00BE               	movwf	e2pext_w@addr^(0+128)
  1895  042F  3000               	movlw	0
  1896  0430  00BF               	movwf	(e2pext_w@addr^(0+128)+1)
  1897  0431  3033               	movlw	51
  1898  0432  00FF               	movwf	btemp+1
  1899  0433  087F               	movf	btemp+1,w
  1900  0434  00C0               	movwf	e2pext_w@val^(0+128)
  1901  0435  120A  118A  2210  120A  118A  	fcall	_e2pext_w
  1902  043A                     l434:
  1903  043A  0008               	return
  1904  043B                     __end_of_set_temp_exteeprom_check:
  1905                           
  1906                           	psect	text4
  1907  0210                     __ptext4:	
  1908 ;; *************** function _e2pext_w *****************
  1909 ;; Defined at:
  1910 ;;		line 65 in file "eeprom_ext.c"
  1911 ;; Parameters:    Size  Location     Type
  1912 ;;  addr            2    0[BANK1 ] unsigned int 
  1913 ;;  val             1    2[BANK1 ] unsigned char 
  1914 ;; Auto vars:     Size  Location     Type
  1915 ;;  tmp             2    8[BANK1 ] unsigned int 
  1916 ;;  nt              1    7[BANK1 ] unsigned char 
  1917 ;;  al              1    6[BANK1 ] unsigned char 
  1918 ;;  ah              1    5[BANK1 ] unsigned char 
  1919 ;; Return value:  Size  Location     Type
  1920 ;;                  1    wreg      void 
  1921 ;; Registers used:
  1922 ;;		wreg, status,2, status,0, btemp+1, pclath, cstack
  1923 ;; Tracked objects:
  1924 ;;		On entry : 0/0
  1925 ;;		On exit  : 0/0
  1926 ;;		Unchanged: 0/0
  1927 ;; Data sizes:     COMMON   BANK0   BANK1   BANK3   BANK2
  1928 ;;      Params:         0       0       3       0       0
  1929 ;;      Locals:         0       0       5       0       0
  1930 ;;      Temps:          0       0       2       0       0
  1931 ;;      Totals:         0       0      10       0       0
  1932 ;;Total ram usage:       10 bytes
  1933 ;; Hardware stack levels used:    1
  1934 ;; Hardware stack levels required when called:    9
  1935 ;; This function calls:
  1936 ;;		_e2pext_r
  1937 ;;		_i2c_start
  1938 ;;		_i2c_stop
  1939 ;;		_i2c_wb
  1940 ;; This function is called by:
  1941 ;;		_set_temp_exteeprom_check
  1942 ;; This function uses a non-reentrant model
  1943 ;;
  1944                           
  1945                           
  1946                           ;psect for function _e2pext_w
  1947  0210                     _e2pext_w:
  1948  0210                     l2860:	
  1949                           ;incstack = 0
  1950 ;; hardware stack exceeded
  1951                           ; Regs used in _e2pext_w: [wreg+status,2+status,0+btemp+1+pclath+cstack]
  1952                           
  1953                           
  1954                           ;eeprom_ext.c: 67: unsigned int tmp;;eeprom_ext.c: 68: unsigned char ah;;eeprom_ext.c: 6
      +                          9: unsigned char al;;eeprom_ext.c: 70: unsigned char nt;;eeprom_ext.c: 72: tmp=val;
  1955  0210  1683               	bsf	3,5	;RP0=1, select bank1
  1956  0211  1303               	bcf	3,6	;RP1=0, select bank1
  1957  0212  0840               	movf	e2pext_w@val^(0+128),w
  1958  0213  00C1               	movwf	??_e2pext_w^(0+128)
  1959  0214  01C2               	clrf	(??_e2pext_w^(0+128)+1)
  1960  0215  0841               	movf	??_e2pext_w^(0+128),w
  1961  0216  00C6               	movwf	e2pext_w@tmp^(0+128)
  1962  0217  0842               	movf	(??_e2pext_w+1)^(0+128),w
  1963  0218  00C7               	movwf	(e2pext_w@tmp+1)^(0+128)
  1964  0219                     l2862:
  1965                           
  1966                           ;eeprom_ext.c: 73: ah=(addr&0x0100)>>8;
  1967  0219  083F               	movf	(e2pext_w@addr+1)^(0+128),w
  1968  021A  3901               	andlw	1
  1969  021B  00FF               	movwf	btemp+1
  1970  021C  087F               	movf	btemp+1,w
  1971  021D  00C3               	movwf	e2pext_w@ah^(0+128)
  1972  021E                     l2864:
  1973                           
  1974                           ;eeprom_ext.c: 74: al=addr&0x00FF;
  1975  021E  083E               	movf	e2pext_w@addr^(0+128),w
  1976  021F  00FF               	movwf	btemp+1
  1977  0220  087F               	movf	btemp+1,w
  1978  0221  00C4               	movwf	e2pext_w@al^(0+128)
  1979  0222                     l2866:
  1980                           
  1981                           ;eeprom_ext.c: 75: nt=0;
  1982  0222  01C5               	clrf	e2pext_w@nt^(0+128)
  1983  0223                     l2868:
  1984                           
  1985                           ;eeprom_ext.c: 78: {;eeprom_ext.c: 79: i2c_start();
  1986  0223  120A  118A  2759  120A  118A  	fcall	_i2c_start
  1987  0228                     l2870:
  1988                           
  1989                           ;eeprom_ext.c: 80: if(ah)
  1990  0228  1683               	bsf	3,5	;RP0=1, select bank1
  1991  0229  1303               	bcf	3,6	;RP1=0, select bank1
  1992  022A  0843               	movf	e2pext_w@ah^(0+128),w
  1993  022B  1903               	btfsc	3,2
  1994  022C  2A2E               	goto	u2011
  1995  022D  2A2F               	goto	u2010
  1996  022E                     u2011:
  1997  022E  2A36               	goto	l2874
  1998  022F                     u2010:
  1999  022F                     l2872:
  2000                           
  2001                           ;eeprom_ext.c: 81: {;eeprom_ext.c: 82: i2c_wb(0xA2);
  2002  022F  30A2               	movlw	162
  2003  0230  120A  118A  25F2  120A  118A  	fcall	_i2c_wb
  2004                           
  2005                           ;eeprom_ext.c: 83: }
  2006  0235  2A3C               	goto	l91
  2007  0236                     l2874:
  2008                           
  2009                           ;eeprom_ext.c: 84: else;eeprom_ext.c: 85: {;eeprom_ext.c: 86: i2c_wb(0xA0);
  2010  0236  30A0               	movlw	160
  2011  0237  120A  118A  25F2  120A  118A  	fcall	_i2c_wb
  2012  023C                     l91:
  2013                           
  2014                           ;eeprom_ext.c: 87: };eeprom_ext.c: 88: i2c_wb(al);
  2015  023C  1683               	bsf	3,5	;RP0=1, select bank1
  2016  023D  1303               	bcf	3,6	;RP1=0, select bank1
  2017  023E  0844               	movf	e2pext_w@al^(0+128),w
  2018  023F  120A  118A  25F2  120A  118A  	fcall	_i2c_wb
  2019                           
  2020                           ;eeprom_ext.c: 89: i2c_wb(tmp);
  2021  0244  1683               	bsf	3,5	;RP0=1, select bank1
  2022  0245  1303               	bcf	3,6	;RP1=0, select bank1
  2023  0246  0846               	movf	e2pext_w@tmp^(0+128),w
  2024  0247  120A  118A  25F2  120A  118A  	fcall	_i2c_wb
  2025  024C                     l2876:
  2026                           
  2027                           ;eeprom_ext.c: 90: i2c_stop();
  2028  024C  120A  118A  2747  120A  118A  	fcall	_i2c_stop
  2029  0251                     l2878:
  2030                           
  2031                           ;eeprom_ext.c: 92: nt++;
  2032  0251  3001               	movlw	1
  2033  0252  00FF               	movwf	btemp+1
  2034  0253  087F               	movf	btemp+1,w
  2035  0254  1683               	bsf	3,5	;RP0=1, select bank1
  2036  0255  1303               	bcf	3,6	;RP1=0, select bank1
  2037  0256  07C5               	addwf	e2pext_w@nt^(0+128),f
  2038  0257                     l2880:
  2039                           
  2040                           ;eeprom_ext.c: 93: };eeprom_ext.c: 94: while((tmp != e2pext_r(addr))&&(nt < 10));
  2041  0257  083F               	movf	(e2pext_w@addr+1)^(0+128),w
  2042  0258  1283               	bcf	3,5	;RP0=0, select bank0
  2043  0259  1303               	bcf	3,6	;RP1=0, select bank0
  2044  025A  00BD               	movwf	e2pext_r@addr+1
  2045  025B  1683               	bsf	3,5	;RP0=1, select bank1
  2046  025C  1303               	bcf	3,6	;RP1=0, select bank1
  2047  025D  083E               	movf	e2pext_w@addr^(0+128),w
  2048  025E  1283               	bcf	3,5	;RP0=0, select bank0
  2049  025F  1303               	bcf	3,6	;RP1=0, select bank0
  2050  0260  00BC               	movwf	e2pext_r@addr
  2051  0261  120A  118A  233A  120A  118A  	fcall	_e2pext_r
  2052  0266  1683               	bsf	3,5	;RP0=1, select bank1
  2053  0267  1303               	bcf	3,6	;RP1=0, select bank1
  2054  0268  00C1               	movwf	??_e2pext_w^(0+128)
  2055  0269  01C2               	clrf	(??_e2pext_w^(0+128)+1)
  2056  026A  0847               	movf	(e2pext_w@tmp+1)^(0+128),w
  2057  026B  0642               	xorwf	(??_e2pext_w+1)^(0+128),w
  2058  026C  1D03               	skipz
  2059  026D  2A70               	goto	u2025
  2060  026E  0846               	movf	e2pext_w@tmp^(0+128),w
  2061  026F  0641               	xorwf	??_e2pext_w^(0+128),w
  2062  0270                     u2025:
  2063  0270  1903               	skipnz
  2064  0271  2A73               	goto	u2021
  2065  0272  2A74               	goto	u2020
  2066  0273                     u2021:
  2067  0273  2A7A               	goto	l95
  2068  0274                     u2020:
  2069  0274                     l2882:
  2070  0274  300A               	movlw	10
  2071  0275  0245               	subwf	e2pext_w@nt^(0+128),w
  2072  0276  1C03               	skipc
  2073  0277  2A79               	goto	u2031
  2074  0278  2A7A               	goto	u2030
  2075  0279                     u2031:
  2076  0279  2A23               	goto	l2868
  2077  027A                     u2030:
  2078  027A                     l95:
  2079  027A  0008               	return
  2080  027B                     __end_of_e2pext_w:
  2081                           
  2082                           	psect	text5
  2083  033A                     __ptext5:	
  2084 ;; *************** function _e2pext_r *****************
  2085 ;; Defined at:
  2086 ;;		line 29 in file "eeprom_ext.c"
  2087 ;; Parameters:    Size  Location     Type
  2088 ;;  addr            2   28[BANK0 ] unsigned int 
  2089 ;; Auto vars:     Size  Location     Type
  2090 ;;  ah              1   32[BANK0 ] unsigned char 
  2091 ;;  al              1   31[BANK0 ] unsigned char 
  2092 ;;  ret             1   30[BANK0 ] unsigned char 
  2093 ;; Return value:  Size  Location     Type
  2094 ;;                  1    wreg      unsigned char 
  2095 ;; Registers used:
  2096 ;;		wreg, status,2, status,0, btemp+1, pclath, cstack
  2097 ;; Tracked objects:
  2098 ;;		On entry : 0/0
  2099 ;;		On exit  : 0/0
  2100 ;;		Unchanged: 0/0
  2101 ;; Data sizes:     COMMON   BANK0   BANK1   BANK3   BANK2
  2102 ;;      Params:         0       2       0       0       0
  2103 ;;      Locals:         0       3       0       0       0
  2104 ;;      Temps:          0       0       0       0       0
  2105 ;;      Totals:         0       5       0       0       0
  2106 ;;Total ram usage:        5 bytes
  2107 ;; Hardware stack levels used:    1
  2108 ;; Hardware stack levels required when called:    8
  2109 ;; This function calls:
  2110 ;;		_i2c_rb
  2111 ;;		_i2c_start
  2112 ;;		_i2c_stop
  2113 ;;		_i2c_wb
  2114 ;; This function is called by:
  2115 ;;		_e2pext_w
  2116 ;;		_set_temp_exteeprom_check
  2117 ;; This function uses a non-reentrant model
  2118 ;;
  2119                           
  2120                           
  2121                           ;psect for function _e2pext_r
  2122  033A                     _e2pext_r:
  2123  033A                     l2834:	
  2124                           ;incstack = 0
  2125 ;; hardware stack exceeded
  2126                           ; Regs used in _e2pext_r: [wreg+status,2+status,0+btemp+1+pclath+cstack]
  2127                           
  2128                           
  2129                           ;eeprom_ext.c: 31: unsigned char ret;;eeprom_ext.c: 32: unsigned char ah;;eeprom_ext.c: 
      +                          33: unsigned char al;;eeprom_ext.c: 35: ah=(addr&0x0100)>>8;
  2130  033A  1283               	bcf	3,5	;RP0=0, select bank0
  2131  033B  1303               	bcf	3,6	;RP1=0, select bank0
  2132  033C  083D               	movf	e2pext_r@addr+1,w
  2133  033D  3901               	andlw	1
  2134  033E  00FF               	movwf	btemp+1
  2135  033F  087F               	movf	btemp+1,w
  2136  0340  00C0               	movwf	e2pext_r@ah
  2137  0341                     l2836:
  2138                           
  2139                           ;eeprom_ext.c: 36: al=addr&0x00FF;
  2140  0341  083C               	movf	e2pext_r@addr,w
  2141  0342  00FF               	movwf	btemp+1
  2142  0343  087F               	movf	btemp+1,w
  2143  0344  00BF               	movwf	e2pext_r@al
  2144  0345                     l2838:
  2145                           
  2146                           ;eeprom_ext.c: 38: i2c_start();
  2147  0345  120A  118A  2759  120A  118A  	fcall	_i2c_start
  2148  034A                     l2840:
  2149                           
  2150                           ;eeprom_ext.c: 39: if(ah)
  2151  034A  1283               	bcf	3,5	;RP0=0, select bank0
  2152  034B  1303               	bcf	3,6	;RP1=0, select bank0
  2153  034C  0840               	movf	e2pext_r@ah,w
  2154  034D  1903               	btfsc	3,2
  2155  034E  2B50               	goto	u1991
  2156  034F  2B51               	goto	u1990
  2157  0350                     u1991:
  2158  0350  2B58               	goto	l2844
  2159  0351                     u1990:
  2160  0351                     l2842:
  2161                           
  2162                           ;eeprom_ext.c: 40: {;eeprom_ext.c: 41: i2c_wb(0xA2);
  2163  0351  30A2               	movlw	162
  2164  0352  120A  118A  25F2  120A  118A  	fcall	_i2c_wb
  2165                           
  2166                           ;eeprom_ext.c: 42: }
  2167  0357  2B5E               	goto	l83
  2168  0358                     l2844:
  2169                           
  2170                           ;eeprom_ext.c: 43: else;eeprom_ext.c: 44: {;eeprom_ext.c: 45: i2c_wb(0xA0);
  2171  0358  30A0               	movlw	160
  2172  0359  120A  118A  25F2  120A  118A  	fcall	_i2c_wb
  2173  035E                     l83:
  2174                           
  2175                           ;eeprom_ext.c: 46: };eeprom_ext.c: 47: i2c_wb(al);
  2176  035E  1283               	bcf	3,5	;RP0=0, select bank0
  2177  035F  1303               	bcf	3,6	;RP1=0, select bank0
  2178  0360  083F               	movf	e2pext_r@al,w
  2179  0361  120A  118A  25F2  120A  118A  	fcall	_i2c_wb
  2180  0366                     l2846:
  2181                           
  2182                           ;eeprom_ext.c: 49: i2c_start();
  2183  0366  120A  118A  2759  120A  118A  	fcall	_i2c_start
  2184  036B                     l2848:
  2185                           
  2186                           ;eeprom_ext.c: 50: if(ah)
  2187  036B  1283               	bcf	3,5	;RP0=0, select bank0
  2188  036C  1303               	bcf	3,6	;RP1=0, select bank0
  2189  036D  0840               	movf	e2pext_r@ah,w
  2190  036E  1903               	btfsc	3,2
  2191  036F  2B71               	goto	u2001
  2192  0370  2B72               	goto	u2000
  2193  0371                     u2001:
  2194  0371  2B79               	goto	l2852
  2195  0372                     u2000:
  2196  0372                     l2850:
  2197                           
  2198                           ;eeprom_ext.c: 51: {;eeprom_ext.c: 52: i2c_wb(0xA3);
  2199  0372  30A3               	movlw	163
  2200  0373  120A  118A  25F2  120A  118A  	fcall	_i2c_wb
  2201                           
  2202                           ;eeprom_ext.c: 53: }
  2203  0378  2B7F               	goto	l85
  2204  0379                     l2852:
  2205                           
  2206                           ;eeprom_ext.c: 54: else;eeprom_ext.c: 55: {;eeprom_ext.c: 56: i2c_wb(0xA1);
  2207  0379  30A1               	movlw	161
  2208  037A  120A  118A  25F2  120A  118A  	fcall	_i2c_wb
  2209  037F                     l85:
  2210                           
  2211                           ;eeprom_ext.c: 57: };eeprom_ext.c: 58: ret=i2c_rb(1);
  2212  037F  3001               	movlw	1
  2213  0380  120A  118A  248B  120A  118A  	fcall	_i2c_rb
  2214  0385  00FF               	movwf	btemp+1
  2215  0386  087F               	movf	btemp+1,w
  2216  0387  1283               	bcf	3,5	;RP0=0, select bank0
  2217  0388  1303               	bcf	3,6	;RP1=0, select bank0
  2218  0389  00BE               	movwf	e2pext_r@ret
  2219  038A                     l2854:
  2220                           
  2221                           ;eeprom_ext.c: 59: i2c_stop();
  2222  038A  120A  118A  2747  120A  118A  	fcall	_i2c_stop
  2223  038F                     l2856:
  2224                           
  2225                           ;eeprom_ext.c: 61: return ret;
  2226  038F  1283               	bcf	3,5	;RP0=0, select bank0
  2227  0390  1303               	bcf	3,6	;RP1=0, select bank0
  2228  0391  083E               	movf	e2pext_r@ret,w
  2229  0392                     l86:
  2230  0392  0008               	return
  2231  0393                     __end_of_e2pext_r:
  2232                           
  2233                           	psect	text6
  2234  05F2                     __ptext6:	
  2235 ;; *************** function _i2c_wb *****************
  2236 ;; Defined at:
  2237 ;;		line 69 in file "i2c.c"
  2238 ;; Parameters:    Size  Location     Type
  2239 ;;  val             1    wreg     unsigned char 
  2240 ;; Auto vars:     Size  Location     Type
  2241 ;;  val             1   26[BANK0 ] unsigned char 
  2242 ;;  i               1   27[BANK0 ] unsigned char 
  2243 ;; Return value:  Size  Location     Type
  2244 ;;                  1    wreg      void 
  2245 ;; Registers used:
  2246 ;;		wreg, status,2, status,0, btemp+1, pclath, cstack
  2247 ;; Tracked objects:
  2248 ;;		On entry : 0/0
  2249 ;;		On exit  : 0/0
  2250 ;;		Unchanged: 0/0
  2251 ;; Data sizes:     COMMON   BANK0   BANK1   BANK3   BANK2
  2252 ;;      Params:         0       0       0       0       0
  2253 ;;      Locals:         0       2       0       0       0
  2254 ;;      Temps:          0       2       0       0       0
  2255 ;;      Totals:         0       4       0       0       0
  2256 ;;Total ram usage:        4 bytes
  2257 ;; Hardware stack levels used:    1
  2258 ;; Hardware stack levels required when called:    7
  2259 ;; This function calls:
  2260 ;;		_delay
  2261 ;; This function is called by:
  2262 ;;		_e2pext_r
  2263 ;;		_e2pext_w
  2264 ;;		_rtc_r
  2265 ;; This function uses a non-reentrant model
  2266 ;;
  2267                           
  2268                           
  2269                           ;psect for function _i2c_wb
  2270  05F2                     _i2c_wb:
  2271                           
  2272                           ;incstack = 0
  2273 ;; hardware stack exceeded
  2274                           ; Regs used in _i2c_wb: [wreg+status,2+status,0+btemp+1+pclath+cstack]
  2275                           ;i2c_wb@val stored from wreg
  2276  05F2  1283               	bcf	3,5	;RP0=0, select bank0
  2277  05F3  1303               	bcf	3,6	;RP1=0, select bank0
  2278  05F4  00BA               	movwf	i2c_wb@val
  2279  05F5                     l2766:
  2280                           
  2281                           ;i2c.c: 71: unsigned char i;;i2c.c: 72: PORTCbits.RC3=0;
  2282  05F5  1187               	bcf	7,3	;volatile
  2283  05F6                     l2768:
  2284                           
  2285                           ;i2c.c: 73: for(i=0;i<8;i++)
  2286  05F6  01BB               	clrf	i2c_wb@i
  2287  05F7                     l2774:
  2288                           
  2289                           ;i2c.c: 74: {;i2c.c: 75: PORTCbits.RC4=((val>>(7-i))& 0x01);
  2290  05F7  083A               	movf	i2c_wb@val,w
  2291  05F8  00B8               	movwf	??_i2c_wb
  2292  05F9  083B               	movf	i2c_wb@i,w
  2293  05FA  3C07               	sublw	7
  2294  05FB  3E01               	addlw	1
  2295  05FC  2DFF               	goto	u1944
  2296  05FD                     u1945:
  2297  05FD  1003               	clrc
  2298  05FE  0CB8               	rrf	??_i2c_wb,f
  2299  05FF                     u1944:
  2300  05FF  3EFF               	addlw	-1
  2301  0600  1D03               	skipz
  2302  0601  2DFD               	goto	u1945
  2303  0602  0838               	movf	??_i2c_wb,w
  2304  0603  3901               	andlw	1
  2305  0604  00B9               	movwf	??_i2c_wb+1
  2306  0605  0EB9               	swapf	??_i2c_wb+1,f
  2307  0606  0807               	movf	7,w	;volatile
  2308  0607  0639               	xorwf	??_i2c_wb+1,w
  2309  0608  39EF               	andlw	-17
  2310  0609  0639               	xorwf	??_i2c_wb+1,w
  2311  060A  0087               	movwf	7	;volatile
  2312  060B                     l2776:
  2313                           
  2314                           ;i2c.c: 76: PORTCbits.RC3=1;
  2315  060B  1587               	bsf	7,3	;volatile
  2316  060C                     l2778:
  2317                           
  2318                           ;i2c.c: 77: delay();
  2319  060C  120A  118A  27C4  120A  118A  	fcall	_delay
  2320  0611                     l2780:
  2321                           
  2322                           ;i2c.c: 78: PORTCbits.RC3=0;
  2323  0611  1283               	bcf	3,5	;RP0=0, select bank0
  2324  0612  1303               	bcf	3,6	;RP1=0, select bank0
  2325  0613  1187               	bcf	7,3	;volatile
  2326  0614                     l2782:
  2327  0614  3001               	movlw	1
  2328  0615  00FF               	movwf	btemp+1
  2329  0616  087F               	movf	btemp+1,w
  2330  0617  07BB               	addwf	i2c_wb@i,f
  2331  0618                     l2784:
  2332  0618  3008               	movlw	8
  2333  0619  023B               	subwf	i2c_wb@i,w
  2334  061A  1C03               	skipc
  2335  061B  2E1D               	goto	u1951
  2336  061C  2E1E               	goto	u1950
  2337  061D                     u1951:
  2338  061D  2DF7               	goto	l2774
  2339  061E                     u1950:
  2340  061E                     l115:
  2341                           
  2342                           ;i2c.c: 79: };i2c.c: 80: PORTCbits.RC4=1;
  2343  061E  1607               	bsf	7,4	;volatile
  2344  061F                     l2786:
  2345                           
  2346                           ;i2c.c: 81: delay();
  2347  061F  120A  118A  27C4  120A  118A  	fcall	_delay
  2348  0624                     l2788:
  2349                           
  2350                           ;i2c.c: 82: PORTCbits.RC3=1;
  2351  0624  1283               	bcf	3,5	;RP0=0, select bank0
  2352  0625  1303               	bcf	3,6	;RP1=0, select bank0
  2353  0626  1587               	bsf	7,3	;volatile
  2354                           
  2355                           ;i2c.c: 83: delay();
  2356  0627  120A  118A  27C4  120A  118A  	fcall	_delay
  2357  062C                     l2790:
  2358                           
  2359                           ;i2c.c: 84: PORTCbits.RC3=0;
  2360  062C  1283               	bcf	3,5	;RP0=0, select bank0
  2361  062D  1303               	bcf	3,6	;RP1=0, select bank0
  2362  062E  1187               	bcf	7,3	;volatile
  2363  062F                     l116:
  2364  062F  0008               	return
  2365  0630                     __end_of_i2c_wb:
  2366                           
  2367                           	psect	text7
  2368  0747                     __ptext7:	
  2369 ;; *************** function _i2c_stop *****************
  2370 ;; Defined at:
  2371 ;;		line 60 in file "i2c.c"
  2372 ;; Parameters:    Size  Location     Type
  2373 ;;		None
  2374 ;; Auto vars:     Size  Location     Type
  2375 ;;		None
  2376 ;; Return value:  Size  Location     Type
  2377 ;;                  1    wreg      void 
  2378 ;; Registers used:
  2379 ;;		status,2, status,0, pclath, cstack
  2380 ;; Tracked objects:
  2381 ;;		On entry : 0/0
  2382 ;;		On exit  : 0/0
  2383 ;;		Unchanged: 0/0
  2384 ;; Data sizes:     COMMON   BANK0   BANK1   BANK3   BANK2
  2385 ;;      Params:         0       0       0       0       0
  2386 ;;      Locals:         0       0       0       0       0
  2387 ;;      Temps:          0       0       0       0       0
  2388 ;;      Totals:         0       0       0       0       0
  2389 ;;Total ram usage:        0 bytes
  2390 ;; Hardware stack levels used:    1
  2391 ;; Hardware stack levels required when called:    7
  2392 ;; This function calls:
  2393 ;;		_delay
  2394 ;; This function is called by:
  2395 ;;		_e2pext_r
  2396 ;;		_e2pext_w
  2397 ;;		_rtc_r
  2398 ;; This function uses a non-reentrant model
  2399 ;;
  2400                           
  2401                           
  2402                           ;psect for function _i2c_stop
  2403  0747                     _i2c_stop:
  2404  0747                     l2828:	
  2405                           ;incstack = 0
  2406 ;; hardware stack exceeded
  2407                           ; Regs used in _i2c_stop: [status,2+status,0+pclath+cstack]
  2408                           
  2409                           
  2410                           ;i2c.c: 62: PORTCbits.RC3=1;
  2411  0747  1283               	bcf	3,5	;RP0=0, select bank0
  2412  0748  1303               	bcf	3,6	;RP1=0, select bank0
  2413  0749  1587               	bsf	7,3	;volatile
  2414                           
  2415                           ;i2c.c: 63: PORTCbits.RC4=0;
  2416  074A  1207               	bcf	7,4	;volatile
  2417  074B                     l2830:
  2418                           
  2419                           ;i2c.c: 64: delay();
  2420  074B  120A  118A  27C4  120A  118A  	fcall	_delay
  2421  0750                     l2832:
  2422                           
  2423                           ;i2c.c: 65: PORTCbits.RC4=1;
  2424  0750  1283               	bcf	3,5	;RP0=0, select bank0
  2425  0751  1303               	bcf	3,6	;RP1=0, select bank0
  2426  0752  1607               	bsf	7,4	;volatile
  2427                           
  2428                           ;i2c.c: 66: delay();
  2429  0753  120A  118A  27C4  120A  118A  	fcall	_delay
  2430  0758                     l111:
  2431  0758  0008               	return
  2432  0759                     __end_of_i2c_stop:
  2433                           
  2434                           	psect	text8
  2435  0759                     __ptext8:	
  2436 ;; *************** function _i2c_start *****************
  2437 ;; Defined at:
  2438 ;;		line 51 in file "i2c.c"
  2439 ;; Parameters:    Size  Location     Type
  2440 ;;		None
  2441 ;; Auto vars:     Size  Location     Type
  2442 ;;		None
  2443 ;; Return value:  Size  Location     Type
  2444 ;;                  1    wreg      void 
  2445 ;; Registers used:
  2446 ;;		status,2, status,0, pclath, cstack
  2447 ;; Tracked objects:
  2448 ;;		On entry : 0/0
  2449 ;;		On exit  : 0/0
  2450 ;;		Unchanged: 0/0
  2451 ;; Data sizes:     COMMON   BANK0   BANK1   BANK3   BANK2
  2452 ;;      Params:         0       0       0       0       0
  2453 ;;      Locals:         0       0       0       0       0
  2454 ;;      Temps:          0       0       0       0       0
  2455 ;;      Totals:         0       0       0       0       0
  2456 ;;Total ram usage:        0 bytes
  2457 ;; Hardware stack levels used:    1
  2458 ;; Hardware stack levels required when called:    7
  2459 ;; This function calls:
  2460 ;;		_delay
  2461 ;; This function is called by:
  2462 ;;		_e2pext_r
  2463 ;;		_e2pext_w
  2464 ;;		_rtc_r
  2465 ;; This function uses a non-reentrant model
  2466 ;;
  2467                           
  2468                           
  2469                           ;psect for function _i2c_start
  2470  0759                     _i2c_start:
  2471  0759                     l2760:	
  2472                           ;incstack = 0
  2473 ;; hardware stack exceeded
  2474                           ; Regs used in _i2c_start: [status,2+status,0+pclath+cstack]
  2475                           
  2476                           
  2477                           ;i2c.c: 53: PORTCbits.RC3=1;
  2478  0759  1283               	bcf	3,5	;RP0=0, select bank0
  2479  075A  1303               	bcf	3,6	;RP1=0, select bank0
  2480  075B  1587               	bsf	7,3	;volatile
  2481                           
  2482                           ;i2c.c: 54: PORTCbits.RC4=1;
  2483  075C  1607               	bsf	7,4	;volatile
  2484  075D                     l2762:
  2485                           
  2486                           ;i2c.c: 55: delay();
  2487  075D  120A  118A  27C4  120A  118A  	fcall	_delay
  2488  0762                     l2764:
  2489                           
  2490                           ;i2c.c: 56: PORTCbits.RC4=0;
  2491  0762  1283               	bcf	3,5	;RP0=0, select bank0
  2492  0763  1303               	bcf	3,6	;RP1=0, select bank0
  2493  0764  1207               	bcf	7,4	;volatile
  2494                           
  2495                           ;i2c.c: 57: delay();
  2496  0765  120A  118A  27C4  120A  118A  	fcall	_delay
  2497  076A                     l108:
  2498  076A  0008               	return
  2499  076B                     __end_of_i2c_start:
  2500                           
  2501                           	psect	text9
  2502  048B                     __ptext9:	
  2503 ;; *************** function _i2c_rb *****************
  2504 ;; Defined at:
  2505 ;;		line 87 in file "i2c.c"
  2506 ;; Parameters:    Size  Location     Type
  2507 ;;  ack             1    wreg     unsigned char 
  2508 ;; Auto vars:     Size  Location     Type
  2509 ;;  ack             1   25[BANK0 ] unsigned char 
  2510 ;;  i               1   27[BANK0 ] unsigned char 
  2511 ;;  ret             1   26[BANK0 ] unsigned char 
  2512 ;; Return value:  Size  Location     Type
  2513 ;;                  1    wreg      unsigned char 
  2514 ;; Registers used:
  2515 ;;		wreg, status,2, status,0, btemp+1, pclath, cstack
  2516 ;; Tracked objects:
  2517 ;;		On entry : 0/0
  2518 ;;		On exit  : 0/0
  2519 ;;		Unchanged: 0/0
  2520 ;; Data sizes:     COMMON   BANK0   BANK1   BANK3   BANK2
  2521 ;;      Params:         0       0       0       0       0
  2522 ;;      Locals:         0       3       0       0       0
  2523 ;;      Temps:          0       1       0       0       0
  2524 ;;      Totals:         0       4       0       0       0
  2525 ;;Total ram usage:        4 bytes
  2526 ;; Hardware stack levels used:    1
  2527 ;; Hardware stack levels required when called:    7
  2528 ;; This function calls:
  2529 ;;		_delay
  2530 ;; This function is called by:
  2531 ;;		_e2pext_r
  2532 ;;		_rtc_r
  2533 ;; This function uses a non-reentrant model
  2534 ;;
  2535                           
  2536                           
  2537                           ;psect for function _i2c_rb
  2538  048B                     _i2c_rb:
  2539                           
  2540                           ;incstack = 0
  2541 ;; hardware stack exceeded
  2542                           ; Regs used in _i2c_rb: [wreg+status,2+status,0+btemp+1+pclath+cstack]
  2543                           ;i2c_rb@ack stored from wreg
  2544  048B  1283               	bcf	3,5	;RP0=0, select bank0
  2545  048C  1303               	bcf	3,6	;RP1=0, select bank0
  2546  048D  00B9               	movwf	i2c_rb@ack
  2547  048E                     l2792:
  2548                           
  2549                           ;i2c.c: 89: char i;;i2c.c: 90: unsigned char ret=0;
  2550  048E  01BA               	clrf	i2c_rb@ret
  2551  048F                     l2794:
  2552                           
  2553                           ;i2c.c: 92: PORTCbits.RC3=0;
  2554  048F  1187               	bcf	7,3	;volatile
  2555  0490                     l2796:
  2556                           
  2557                           ;i2c.c: 93: TRISCbits.TRISC4=1;
  2558  0490  1683               	bsf	3,5	;RP0=1, select bank1
  2559  0491  1303               	bcf	3,6	;RP1=0, select bank1
  2560  0492  1607               	bsf	7,4	;volatile
  2561  0493                     l2798:
  2562                           
  2563                           ;i2c.c: 94: PORTCbits.RC4=1;
  2564  0493  1283               	bcf	3,5	;RP0=0, select bank0
  2565  0494  1303               	bcf	3,6	;RP1=0, select bank0
  2566  0495  1607               	bsf	7,4	;volatile
  2567                           
  2568                           ;i2c.c: 95: for(i=0;i<8;i++)
  2569  0496  01BB               	clrf	i2c_rb@i
  2570  0497                     l119:
  2571                           
  2572                           ;i2c.c: 96: {;i2c.c: 97: PORTCbits.RC3=1;
  2573  0497  1587               	bsf	7,3	;volatile
  2574  0498                     l2804:
  2575                           
  2576                           ;i2c.c: 98: delay();
  2577  0498  120A  118A  27C4  120A  118A  	fcall	_delay
  2578  049D                     l2806:
  2579                           
  2580                           ;i2c.c: 99: ret|=(PORTCbits.RC4<<(7-i));
  2581  049D  1283               	bcf	3,5	;RP0=0, select bank0
  2582  049E  1303               	bcf	3,6	;RP1=0, select bank0
  2583  049F  0E07               	swapf	7,w	;volatile
  2584  04A0  3901               	andlw	1
  2585  04A1  00B8               	movwf	??_i2c_rb
  2586  04A2  083B               	movf	i2c_rb@i,w
  2587  04A3  3C07               	sublw	7
  2588  04A4  3E01               	addlw	1
  2589  04A5  2CA8               	goto	u1964
  2590  04A6                     u1965:
  2591  04A6  1003               	clrc
  2592  04A7  0DB8               	rlf	??_i2c_rb,f
  2593  04A8                     u1964:
  2594  04A8  3EFF               	addlw	-1
  2595  04A9  1D03               	skipz
  2596  04AA  2CA6               	goto	u1965
  2597  04AB  0838               	movf	??_i2c_rb,w
  2598  04AC  00FF               	movwf	btemp+1
  2599  04AD  087F               	movf	btemp+1,w
  2600  04AE  04BA               	iorwf	i2c_rb@ret,f
  2601  04AF                     l2808:
  2602                           
  2603                           ;i2c.c: 100: PORTCbits.RC3=0;
  2604  04AF  1187               	bcf	7,3	;volatile
  2605  04B0                     l2810:
  2606  04B0  3001               	movlw	1
  2607  04B1  00FF               	movwf	btemp+1
  2608  04B2  087F               	movf	btemp+1,w
  2609  04B3  07BB               	addwf	i2c_rb@i,f
  2610  04B4                     l2812:
  2611  04B4  3008               	movlw	8
  2612  04B5  023B               	subwf	i2c_rb@i,w
  2613  04B6  1C03               	skipc
  2614  04B7  2CB9               	goto	u1971
  2615  04B8  2CBA               	goto	u1970
  2616  04B9                     u1971:
  2617  04B9  2C97               	goto	l119
  2618  04BA                     u1970:
  2619  04BA                     l120:
  2620                           
  2621                           ;i2c.c: 101: };i2c.c: 102: TRISCbits.TRISC4=0;
  2622  04BA  1683               	bsf	3,5	;RP0=1, select bank1
  2623  04BB  1303               	bcf	3,6	;RP1=0, select bank1
  2624  04BC  1207               	bcf	7,4	;volatile
  2625  04BD                     l2814:
  2626                           
  2627                           ;i2c.c: 103: if(ack)
  2628  04BD  1283               	bcf	3,5	;RP0=0, select bank0
  2629  04BE  1303               	bcf	3,6	;RP1=0, select bank0
  2630  04BF  0839               	movf	i2c_rb@ack,w
  2631  04C0  1903               	btfsc	3,2
  2632  04C1  2CC3               	goto	u1981
  2633  04C2  2CC4               	goto	u1980
  2634  04C3                     u1981:
  2635  04C3  2CC6               	goto	l121
  2636  04C4                     u1980:
  2637  04C4                     l2816:
  2638                           
  2639                           ;i2c.c: 104: PORTCbits.RC4=0;
  2640  04C4  1207               	bcf	7,4	;volatile
  2641  04C5  2CC7               	goto	l2818
  2642  04C6                     l121:
  2643                           
  2644                           ;i2c.c: 105: else;i2c.c: 106: PORTCbits.RC4=1;
  2645  04C6  1607               	bsf	7,4	;volatile
  2646  04C7                     l2818:
  2647                           
  2648                           ;i2c.c: 107: delay();
  2649  04C7  120A  118A  27C4  120A  118A  	fcall	_delay
  2650  04CC                     l2820:
  2651                           
  2652                           ;i2c.c: 108: PORTCbits.RC3=1;
  2653  04CC  1283               	bcf	3,5	;RP0=0, select bank0
  2654  04CD  1303               	bcf	3,6	;RP1=0, select bank0
  2655  04CE  1587               	bsf	7,3	;volatile
  2656                           
  2657                           ;i2c.c: 109: delay();
  2658  04CF  120A  118A  27C4  120A  118A  	fcall	_delay
  2659  04D4                     l2822:
  2660                           
  2661                           ;i2c.c: 110: PORTCbits.RC3=0;
  2662  04D4  1283               	bcf	3,5	;RP0=0, select bank0
  2663  04D5  1303               	bcf	3,6	;RP1=0, select bank0
  2664  04D6  1187               	bcf	7,3	;volatile
  2665  04D7                     l2824:
  2666                           
  2667                           ;i2c.c: 112: return ret;
  2668  04D7  083A               	movf	i2c_rb@ret,w
  2669  04D8                     l123:
  2670  04D8  0008               	return
  2671  04D9                     __end_of_i2c_rb:
  2672                           
  2673                           	psect	text10
  2674  07C4                     __ptext10:	
  2675 ;; *************** function _delay *****************
  2676 ;; Defined at:
  2677 ;;		line 30 in file "i2c.c"
  2678 ;; Parameters:    Size  Location     Type
  2679 ;;		None
  2680 ;; Auto vars:     Size  Location     Type
  2681 ;;		None
  2682 ;; Return value:  Size  Location     Type
  2683 ;;                  1    wreg      void 
  2684 ;; Registers used:
  2685 ;;		None
  2686 ;; Tracked objects:
  2687 ;;		On entry : 0/0
  2688 ;;		On exit  : 0/0
  2689 ;;		Unchanged: 0/0
  2690 ;; Data sizes:     COMMON   BANK0   BANK1   BANK3   BANK2
  2691 ;;      Params:         0       0       0       0       0
  2692 ;;      Locals:         0       0       0       0       0
  2693 ;;      Temps:          0       0       0       0       0
  2694 ;;      Totals:         0       0       0       0       0
  2695 ;;Total ram usage:        0 bytes
  2696 ;; Hardware stack levels used:    1
  2697 ;; Hardware stack levels required when called:    6
  2698 ;; This function calls:
  2699 ;;		Nothing
  2700 ;; This function is called by:
  2701 ;;		_i2c_start
  2702 ;;		_i2c_stop
  2703 ;;		_i2c_wb
  2704 ;;		_i2c_rb
  2705 ;; This function uses a non-reentrant model
  2706 ;;
  2707                           
  2708                           
  2709                           ;psect for function _delay
  2710  07C4                     _delay:
  2711  07C4                     l2758:	
  2712                           ;incstack = 0
  2713 ;; hardware stack exceeded
  2714                           ; Regs used in _delay: []
  2715                           
  2716  07C4  0000               	nop	;# 
  2717  07C5  0000               	nop	;# 
  2718  07C6  0000               	nop	;# 
  2719  07C7  0000               	nop	;# 
  2720  07C8  0000               	nop	;# 
  2721  07C9  0000               	nop	;# 
  2722  07CA  0000               	nop	;# 
  2723  07CB  0000               	nop	;# 
  2724  07CC                     l102:
  2725  07CC  0008               	return
  2726  07CD                     __end_of_delay:
  2727                           
  2728                           	psect	text11
  2729  07DE                     __ptext11:	
  2730 ;; *************** function _interrupts_init *****************
  2731 ;; Defined at:
  2732 ;;		line 191 in file "teste_b4.c"
  2733 ;; Parameters:    Size  Location     Type
  2734 ;;		None
  2735 ;; Auto vars:     Size  Location     Type
  2736 ;;		None
  2737 ;; Return value:  Size  Location     Type
  2738 ;;                  1    wreg      void 
  2739 ;; Registers used:
  2740 ;;		None
  2741 ;; Tracked objects:
  2742 ;;		On entry : 0/0
  2743 ;;		On exit  : 0/0
  2744 ;;		Unchanged: 0/0
  2745 ;; Data sizes:     COMMON   BANK0   BANK1   BANK3   BANK2
  2746 ;;      Params:         0       0       0       0       0
  2747 ;;      Locals:         0       0       0       0       0
  2748 ;;      Temps:          0       0       0       0       0
  2749 ;;      Totals:         0       0       0       0       0
  2750 ;;Total ram usage:        0 bytes
  2751 ;; Hardware stack levels used:    1
  2752 ;; Hardware stack levels required when called:    6
  2753 ;; This function calls:
  2754 ;;		Nothing
  2755 ;; This function is called by:
  2756 ;;		_main
  2757 ;; This function uses a non-reentrant model
  2758 ;;
  2759                           
  2760                           
  2761                           ;psect for function _interrupts_init
  2762  07DE                     _interrupts_init:
  2763  07DE                     l2918:	
  2764                           ;incstack = 0
  2765                           ; Regs used in _interrupts_init: []
  2766                           
  2767                           
  2768                           ;teste_b4.c: 194: GIE = 1;
  2769  07DE  178B               	bsf	11,7	;volatile
  2770                           
  2771                           ;teste_b4.c: 195: PEIE = 1;
  2772  07DF  170B               	bsf	11,6	;volatile
  2773                           
  2774                           ;teste_b4.c: 198: TMR0IE = 1;
  2775  07E0  168B               	bsf	11,5	;volatile
  2776                           
  2777                           ;teste_b4.c: 199: TMR1IE = 1;
  2778  07E1  1683               	bsf	3,5	;RP0=1, select bank1
  2779  07E2  1303               	bcf	3,6	;RP1=0, select bank1
  2780  07E3  140C               	bsf	12,0	;volatile
  2781                           
  2782                           ;teste_b4.c: 202: INTE = 1;
  2783  07E4  160B               	bsf	11,4	;volatile
  2784  07E5                     l407:
  2785  07E5  0008               	return
  2786  07E6                     __end_of_interrupts_init:
  2787                           
  2788                           	psect	text12
  2789  07E6                     __ptext12:	
  2790 ;; *************** function _i2c_init *****************
  2791 ;; Defined at:
  2792 ;;		line 44 in file "i2c.c"
  2793 ;; Parameters:    Size  Location     Type
  2794 ;;		None
  2795 ;; Auto vars:     Size  Location     Type
  2796 ;;		None
  2797 ;; Return value:  Size  Location     Type
  2798 ;;                  1    wreg      void 
  2799 ;; Registers used:
  2800 ;;		None
  2801 ;; Tracked objects:
  2802 ;;		On entry : 0/0
  2803 ;;		On exit  : 0/0
  2804 ;;		Unchanged: 0/0
  2805 ;; Data sizes:     COMMON   BANK0   BANK1   BANK3   BANK2
  2806 ;;      Params:         0       0       0       0       0
  2807 ;;      Locals:         0       0       0       0       0
  2808 ;;      Temps:          0       0       0       0       0
  2809 ;;      Totals:         0       0       0       0       0
  2810 ;;Total ram usage:        0 bytes
  2811 ;; Hardware stack levels used:    1
  2812 ;; Hardware stack levels required when called:    6
  2813 ;; This function calls:
  2814 ;;		Nothing
  2815 ;; This function is called by:
  2816 ;;		_main
  2817 ;; This function uses a non-reentrant model
  2818 ;;
  2819                           
  2820                           
  2821                           ;psect for function _i2c_init
  2822  07E6                     _i2c_init:
  2823  07E6                     l2884:	
  2824                           ;incstack = 0
  2825                           ; Regs used in _i2c_init: []
  2826                           
  2827                           
  2828                           ;i2c.c: 46: TRISCbits.TRISC4=0;
  2829  07E6  1683               	bsf	3,5	;RP0=1, select bank1
  2830  07E7  1303               	bcf	3,6	;RP1=0, select bank1
  2831  07E8  1207               	bcf	7,4	;volatile
  2832                           
  2833                           ;i2c.c: 47: PORTCbits.RC3=1;
  2834  07E9  1283               	bcf	3,5	;RP0=0, select bank0
  2835  07EA  1303               	bcf	3,6	;RP1=0, select bank0
  2836  07EB  1587               	bsf	7,3	;volatile
  2837                           
  2838                           ;i2c.c: 48: PORTCbits.RC4=1;
  2839  07EC  1607               	bsf	7,4	;volatile
  2840  07ED                     l105:
  2841  07ED  0008               	return
  2842  07EE                     __end_of_i2c_init:
  2843                           
  2844                           	psect	text13
  2845  0707                     __ptext13:	
  2846 ;; *************** function _deactivate_heater *****************
  2847 ;; Defined at:
  2848 ;;		line 73 in file "teste_b4.c"
  2849 ;; Parameters:    Size  Location     Type
  2850 ;;		None
  2851 ;; Auto vars:     Size  Location     Type
  2852 ;;		None
  2853 ;; Return value:  Size  Location     Type
  2854 ;;                  1    wreg      void 
  2855 ;; Registers used:
  2856 ;;		wreg, status,2, status,0
  2857 ;; Tracked objects:
  2858 ;;		On entry : 0/0
  2859 ;;		On exit  : 0/0
  2860 ;;		Unchanged: 0/0
  2861 ;; Data sizes:     COMMON   BANK0   BANK1   BANK3   BANK2
  2862 ;;      Params:         0       0       0       0       0
  2863 ;;      Locals:         0       0       0       0       0
  2864 ;;      Temps:          0       0       0       0       0
  2865 ;;      Totals:         0       0       0       0       0
  2866 ;;Total ram usage:        0 bytes
  2867 ;; Hardware stack levels used:    1
  2868 ;; Hardware stack levels required when called:    6
  2869 ;; This function calls:
  2870 ;;		Nothing
  2871 ;; This function is called by:
  2872 ;;		_main
  2873 ;; This function uses a non-reentrant model
  2874 ;;
  2875                           
  2876                           
  2877                           ;psect for function _deactivate_heater
  2878  0707                     _deactivate_heater:
  2879  0707                     l2890:	
  2880                           ;incstack = 0
  2881                           ; Regs used in _deactivate_heater: [wreg+status,2+status,0]
  2882                           
  2883                           
  2884                           ;teste_b4.c: 75: if (state == 'F' || set_temperature == avg_measured_temperature || cool
      +                          er_on)
  2885  0707  3046               	movlw	70
  2886  0708  1283               	bcf	3,5	;RP0=0, select bank0
  2887  0709  1303               	bcf	3,6	;RP1=0, select bank0
  2888  070A  0657               	xorwf	_state,w
  2889  070B  1903               	btfsc	3,2
  2890  070C  2F0E               	goto	u2051
  2891  070D  2F0F               	goto	u2050
  2892  070E                     u2051:
  2893  070E  2F1E               	goto	l356
  2894  070F                     u2050:
  2895  070F                     l2892:
  2896  070F  0855               	movf	_avg_measured_temperature+1,w
  2897  0710  0653               	xorwf	_set_temperature+1,w
  2898  0711  1D03               	skipz
  2899  0712  2F15               	goto	u2065
  2900  0713  0854               	movf	_avg_measured_temperature,w
  2901  0714  0652               	xorwf	_set_temperature,w
  2902  0715                     u2065:
  2903  0715  1903               	skipnz
  2904  0716  2F18               	goto	u2061
  2905  0717  2F19               	goto	u2060
  2906  0718                     u2061:
  2907  0718  2F1E               	goto	l356
  2908  0719                     u2060:
  2909  0719                     l2894:
  2910  0719  0850               	movf	_cooler_on,w
  2911  071A  1903               	btfsc	3,2
  2912  071B  2F1D               	goto	u2071
  2913  071C  2F1E               	goto	u2070
  2914  071D                     u2071:
  2915  071D  2F26               	goto	l358
  2916  071E                     u2070:
  2917  071E                     l356:
  2918                           
  2919                           ;teste_b4.c: 76: {;teste_b4.c: 77: RC5 = 0;
  2920  071E  1287               	bcf	7,5	;volatile
  2921  071F                     l2896:
  2922                           
  2923                           ;teste_b4.c: 78: heater_on = 0;
  2924  071F  01D1               	clrf	_heater_on
  2925  0720                     l2898:
  2926                           
  2927                           ;teste_b4.c: 79: if (!cooler_on)
  2928  0720  0850               	movf	_cooler_on,w
  2929  0721  1D03               	btfss	3,2
  2930  0722  2F24               	goto	u2081
  2931  0723  2F25               	goto	u2080
  2932  0724                     u2081:
  2933  0724  2F26               	goto	l358
  2934  0725                     u2080:
  2935  0725                     l2900:
  2936                           
  2937                           ;teste_b4.c: 80: RB6 = 0;
  2938  0725  1306               	bcf	6,6	;volatile
  2939  0726                     l358:
  2940  0726  0008               	return
  2941  0727                     __end_of_deactivate_heater:
  2942                           
  2943                           	psect	text14
  2944  0727                     __ptext14:	
  2945 ;; *************** function _deactivate_cooler *****************
  2946 ;; Defined at:
  2947 ;;		line 96 in file "teste_b4.c"
  2948 ;; Parameters:    Size  Location     Type
  2949 ;;		None
  2950 ;; Auto vars:     Size  Location     Type
  2951 ;;		None
  2952 ;; Return value:  Size  Location     Type
  2953 ;;                  1    wreg      void 
  2954 ;; Registers used:
  2955 ;;		wreg, status,2, status,0
  2956 ;; Tracked objects:
  2957 ;;		On entry : 0/0
  2958 ;;		On exit  : 0/0
  2959 ;;		Unchanged: 0/0
  2960 ;; Data sizes:     COMMON   BANK0   BANK1   BANK3   BANK2
  2961 ;;      Params:         0       0       0       0       0
  2962 ;;      Locals:         0       0       0       0       0
  2963 ;;      Temps:          0       0       0       0       0
  2964 ;;      Totals:         0       0       0       0       0
  2965 ;;Total ram usage:        0 bytes
  2966 ;; Hardware stack levels used:    1
  2967 ;; Hardware stack levels required when called:    6
  2968 ;; This function calls:
  2969 ;;		Nothing
  2970 ;; This function is called by:
  2971 ;;		_main
  2972 ;; This function uses a non-reentrant model
  2973 ;;
  2974                           
  2975                           
  2976                           ;psect for function _deactivate_cooler
  2977  0727                     _deactivate_cooler:
  2978  0727                     l2906:	
  2979                           ;incstack = 0
  2980                           ; Regs used in _deactivate_cooler: [wreg+status,2+status,0]
  2981                           
  2982                           
  2983                           ;teste_b4.c: 98: if (state == 'F' || set_temperature == avg_measured_temperature || heat
      +                          er_on)
  2984  0727  3046               	movlw	70
  2985  0728  1283               	bcf	3,5	;RP0=0, select bank0
  2986  0729  1303               	bcf	3,6	;RP1=0, select bank0
  2987  072A  0657               	xorwf	_state,w
  2988  072B  1903               	btfsc	3,2
  2989  072C  2F2E               	goto	u2101
  2990  072D  2F2F               	goto	u2100
  2991  072E                     u2101:
  2992  072E  2F3E               	goto	l367
  2993  072F                     u2100:
  2994  072F                     l2908:
  2995  072F  0855               	movf	_avg_measured_temperature+1,w
  2996  0730  0653               	xorwf	_set_temperature+1,w
  2997  0731  1D03               	skipz
  2998  0732  2F35               	goto	u2115
  2999  0733  0854               	movf	_avg_measured_temperature,w
  3000  0734  0652               	xorwf	_set_temperature,w
  3001  0735                     u2115:
  3002  0735  1903               	skipnz
  3003  0736  2F38               	goto	u2111
  3004  0737  2F39               	goto	u2110
  3005  0738                     u2111:
  3006  0738  2F3E               	goto	l367
  3007  0739                     u2110:
  3008  0739                     l2910:
  3009  0739  0851               	movf	_heater_on,w
  3010  073A  1903               	btfsc	3,2
  3011  073B  2F3D               	goto	u2121
  3012  073C  2F3E               	goto	u2120
  3013  073D                     u2121:
  3014  073D  2F46               	goto	l369
  3015  073E                     u2120:
  3016  073E                     l367:
  3017                           
  3018                           ;teste_b4.c: 99: {;teste_b4.c: 100: RC2 = 0;
  3019  073E  1107               	bcf	7,2	;volatile
  3020  073F                     l2912:
  3021                           
  3022                           ;teste_b4.c: 101: cooler_on = 0;
  3023  073F  01D0               	clrf	_cooler_on
  3024  0740                     l2914:
  3025                           
  3026                           ;teste_b4.c: 102: if (!heater_on)
  3027  0740  0851               	movf	_heater_on,w
  3028  0741  1D03               	btfss	3,2
  3029  0742  2F44               	goto	u2131
  3030  0743  2F45               	goto	u2130
  3031  0744                     u2131:
  3032  0744  2F46               	goto	l369
  3033  0745                     u2130:
  3034  0745                     l2916:
  3035                           
  3036                           ;teste_b4.c: 103: RB6 = 0;
  3037  0745  1306               	bcf	6,6	;volatile
  3038  0746                     l369:
  3039  0746  0008               	return
  3040  0747                     __end_of_deactivate_cooler:
  3041                           
  3042                           	psect	text15
  3043  078F                     __ptext15:	
  3044 ;; *************** function _activate_heater *****************
  3045 ;; Defined at:
  3046 ;;		line 62 in file "teste_b4.c"
  3047 ;; Parameters:    Size  Location     Type
  3048 ;;		None
  3049 ;; Auto vars:     Size  Location     Type
  3050 ;;		None
  3051 ;; Return value:  Size  Location     Type
  3052 ;;                  1    wreg      void 
  3053 ;; Registers used:
  3054 ;;		wreg, status,2, status,0
  3055 ;; Tracked objects:
  3056 ;;		On entry : 0/0
  3057 ;;		On exit  : 0/0
  3058 ;;		Unchanged: 0/0
  3059 ;; Data sizes:     COMMON   BANK0   BANK1   BANK3   BANK2
  3060 ;;      Params:         0       0       0       0       0
  3061 ;;      Locals:         0       0       0       0       0
  3062 ;;      Temps:          0       0       0       0       0
  3063 ;;      Totals:         0       0       0       0       0
  3064 ;;Total ram usage:        0 bytes
  3065 ;; Hardware stack levels used:    1
  3066 ;; Hardware stack levels required when called:    6
  3067 ;; This function calls:
  3068 ;;		Nothing
  3069 ;; This function is called by:
  3070 ;;		_main
  3071 ;; This function uses a non-reentrant model
  3072 ;;
  3073                           
  3074                           
  3075                           ;psect for function _activate_heater
  3076  078F                     _activate_heater:
  3077  078F                     l2886:	
  3078                           ;incstack = 0
  3079                           ; Regs used in _activate_heater: [wreg+status,2+status,0]
  3080                           
  3081                           
  3082                           ;teste_b4.c: 64: if (!heater_on)
  3083  078F  1283               	bcf	3,5	;RP0=0, select bank0
  3084  0790  1303               	bcf	3,6	;RP1=0, select bank0
  3085  0791  0851               	movf	_heater_on,w
  3086  0792  1D03               	btfss	3,2
  3087  0793  2F95               	goto	u2041
  3088  0794  2F96               	goto	u2040
  3089  0795                     u2041:
  3090  0795  2F9A               	goto	l351
  3091  0796                     u2040:
  3092  0796                     l2888:
  3093                           
  3094                           ;teste_b4.c: 65: {;teste_b4.c: 66: RC5 = 1;
  3095  0796  1687               	bsf	7,5	;volatile
  3096                           
  3097                           ;teste_b4.c: 67: heater_on = 1;
  3098  0797  01D1               	clrf	_heater_on
  3099  0798  0AD1               	incf	_heater_on,f
  3100                           
  3101                           ;teste_b4.c: 68: RB6 = 1;
  3102  0799  1706               	bsf	6,6	;volatile
  3103  079A                     l351:
  3104  079A  0008               	return
  3105  079B                     __end_of_activate_heater:
  3106                           
  3107                           	psect	text16
  3108  079B                     __ptext16:	
  3109 ;; *************** function _activate_cooler *****************
  3110 ;; Defined at:
  3111 ;;		line 85 in file "teste_b4.c"
  3112 ;; Parameters:    Size  Location     Type
  3113 ;;		None
  3114 ;; Auto vars:     Size  Location     Type
  3115 ;;		None
  3116 ;; Return value:  Size  Location     Type
  3117 ;;                  1    wreg      void 
  3118 ;; Registers used:
  3119 ;;		wreg, status,2, status,0
  3120 ;; Tracked objects:
  3121 ;;		On entry : 0/0
  3122 ;;		On exit  : 0/0
  3123 ;;		Unchanged: 0/0
  3124 ;; Data sizes:     COMMON   BANK0   BANK1   BANK3   BANK2
  3125 ;;      Params:         0       0       0       0       0
  3126 ;;      Locals:         0       0       0       0       0
  3127 ;;      Temps:          0       0       0       0       0
  3128 ;;      Totals:         0       0       0       0       0
  3129 ;;Total ram usage:        0 bytes
  3130 ;; Hardware stack levels used:    1
  3131 ;; Hardware stack levels required when called:    6
  3132 ;; This function calls:
  3133 ;;		Nothing
  3134 ;; This function is called by:
  3135 ;;		_main
  3136 ;; This function uses a non-reentrant model
  3137 ;;
  3138                           
  3139                           
  3140                           ;psect for function _activate_cooler
  3141  079B                     _activate_cooler:
  3142  079B                     l2902:	
  3143                           ;incstack = 0
  3144                           ; Regs used in _activate_cooler: [wreg+status,2+status,0]
  3145                           
  3146                           
  3147                           ;teste_b4.c: 87: if (!cooler_on)
  3148  079B  1283               	bcf	3,5	;RP0=0, select bank0
  3149  079C  1303               	bcf	3,6	;RP1=0, select bank0
  3150  079D  0850               	movf	_cooler_on,w
  3151  079E  1D03               	btfss	3,2
  3152  079F  2FA1               	goto	u2091
  3153  07A0  2FA2               	goto	u2090
  3154  07A1                     u2091:
  3155  07A1  2FA6               	goto	l362
  3156  07A2                     u2090:
  3157  07A2                     l2904:
  3158                           
  3159                           ;teste_b4.c: 88: {;teste_b4.c: 89: RC2 = 1;
  3160  07A2  1507               	bsf	7,2	;volatile
  3161                           
  3162                           ;teste_b4.c: 90: cooler_on = 1;
  3163  07A3  01D0               	clrf	_cooler_on
  3164  07A4  0AD0               	incf	_cooler_on,f
  3165                           
  3166                           ;teste_b4.c: 91: RB6 = 1;
  3167  07A5  1706               	bsf	6,6	;volatile
  3168  07A6                     l362:
  3169  07A6  0008               	return
  3170  07A7                     __end_of_activate_cooler:
  3171                           
  3172                           	psect	text17
  3173  01A3                     __ptext17:	
  3174 ;; *************** function _ISR *****************
  3175 ;; Defined at:
  3176 ;;		line 244 in file "teste_b4.c"
  3177 ;; Parameters:    Size  Location     Type
  3178 ;;		None
  3179 ;; Auto vars:     Size  Location     Type
  3180 ;;		None
  3181 ;; Return value:  Size  Location     Type
  3182 ;;                  1    wreg      void 
  3183 ;; Registers used:
  3184 ;;		wreg, fsr0l, fsr0h, status,2, status,0, btemp+1, pclath, cstack
  3185 ;; Tracked objects:
  3186 ;;		On entry : 0/0
  3187 ;;		On exit  : 0/0
  3188 ;;		Unchanged: 0/0
  3189 ;; Data sizes:     COMMON   BANK0   BANK1   BANK3   BANK2
  3190 ;;      Params:         0       0       0       0       0
  3191 ;;      Locals:         0       2       0       0       0
  3192 ;;      Temps:          0       4       0       0       0
  3193 ;;      Totals:         0       6       0       0       0
  3194 ;;Total ram usage:        6 bytes
  3195 ;; Hardware stack levels used:    1
  3196 ;; Hardware stack levels required when called:    5
  3197 ;; This function calls:
  3198 ;;		__1s_handler
  3199 ;;		_adc_sample_and_update_average
  3200 ;;		_show_7sd
  3201 ;; This function is called by:
  3202 ;;		Interrupt level 1
  3203 ;; This function uses a non-reentrant model
  3204 ;;
  3205                           
  3206                           
  3207                           ;psect for function _ISR
  3208  01A3                     _ISR:
  3209  01A3                     i1l2644:
  3210                           
  3211                           ;teste_b4.c: 247: if (INTF)
  3212  01A3  1C8B               	btfss	11,1	;volatile
  3213  01A4  29A6               	goto	u175_21
  3214  01A5  29A7               	goto	u175_20
  3215  01A6                     u175_21:
  3216  01A6  29C2               	goto	i1l2660
  3217  01A7                     u175_20:
  3218  01A7                     i1l2646:
  3219                           
  3220                           ;teste_b4.c: 248: {;teste_b4.c: 249: state = state == 'O' || state == 'S' ? 'F' : 'O';
  3221  01A7  304F               	movlw	79
  3222  01A8  0657               	xorwf	_state,w
  3223  01A9  1903               	btfsc	3,2
  3224  01AA  29AC               	goto	u176_21
  3225  01AB  29AD               	goto	u176_20
  3226  01AC                     u176_21:
  3227  01AC  29B8               	goto	i1l2652
  3228  01AD                     u176_20:
  3229  01AD                     i1l2648:
  3230  01AD  3053               	movlw	83
  3231  01AE  0657               	xorwf	_state,w
  3232  01AF  1903               	btfsc	3,2
  3233  01B0  29B2               	goto	u177_21
  3234  01B1  29B3               	goto	u177_20
  3235  01B2                     u177_21:
  3236  01B2  29B8               	goto	i1l2652
  3237  01B3                     u177_20:
  3238  01B3                     i1l2650:
  3239  01B3  304F               	movlw	79
  3240  01B4  00B6               	movwf	_ISR$515
  3241  01B5  3000               	movlw	0
  3242  01B6  00B7               	movwf	_ISR$515+1
  3243  01B7  29BC               	goto	i1l2654
  3244  01B8                     i1l2652:
  3245  01B8  3046               	movlw	70
  3246  01B9  00B6               	movwf	_ISR$515
  3247  01BA  3000               	movlw	0
  3248  01BB  00B7               	movwf	_ISR$515+1
  3249  01BC                     i1l2654:
  3250  01BC  0836               	movf	_ISR$515,w
  3251  01BD  00FF               	movwf	btemp+1
  3252  01BE  087F               	movf	btemp+1,w
  3253  01BF  00D7               	movwf	_state
  3254  01C0                     i1l2656:
  3255                           
  3256                           ;teste_b4.c: 250: INTF = 0;
  3257  01C0  108B               	bcf	11,1	;volatile
  3258  01C1  2A05               	goto	i1l423
  3259  01C2                     i1l2660:
  3260                           
  3261                           ;teste_b4.c: 252: };teste_b4.c: 255: if (state != 'F')
  3262  01C2  3046               	movlw	70
  3263  01C3  0657               	xorwf	_state,w
  3264  01C4  1903               	btfsc	3,2
  3265  01C5  29C7               	goto	u178_21
  3266  01C6  29C8               	goto	u178_20
  3267  01C7                     u178_21:
  3268  01C7  2A04               	goto	i1l2692
  3269  01C8                     u178_20:
  3270  01C8                     i1l2662:
  3271                           
  3272                           ;teste_b4.c: 256: {;teste_b4.c: 258: if (state == 'O')
  3273  01C8  304F               	movlw	79
  3274  01C9  0657               	xorwf	_state,w
  3275  01CA  1D03               	btfss	3,2
  3276  01CB  29CD               	goto	u179_21
  3277  01CC  29CE               	goto	u179_20
  3278  01CD                     u179_21:
  3279  01CD  29D2               	goto	i1l2666
  3280  01CE                     u179_20:
  3281  01CE                     i1l2664:
  3282                           
  3283                           ;teste_b4.c: 259: {;teste_b4.c: 260: _7sd_mask = 0xff;
  3284  01CE  30FF               	movlw	255
  3285  01CF  00FF               	movwf	btemp+1
  3286  01D0  087F               	movf	btemp+1,w
  3287  01D1  00D6               	movwf	__7sd_mask
  3288  01D2                     i1l2666:
  3289                           
  3290                           ;teste_b4.c: 261: };teste_b4.c: 264: if (TMR0IF)
  3291  01D2  1D0B               	btfss	11,2	;volatile
  3292  01D3  29D5               	goto	u180_21
  3293  01D4  29D6               	goto	u180_20
  3294  01D5                     u180_21:
  3295  01D5  29E0               	goto	i1l2674
  3296  01D6                     u180_20:
  3297  01D6                     i1l2668:
  3298                           
  3299                           ;teste_b4.c: 265: {;teste_b4.c: 266: show_7sd();
  3300  01D6  120A  118A  210C  120A  118A  	fcall	_show_7sd
  3301  01DB                     i1l2670:
  3302                           
  3303                           ;teste_b4.c: 268: TMR0 = 61;
  3304  01DB  303D               	movlw	61
  3305  01DC  1283               	bcf	3,5	;RP0=0, select bank0
  3306  01DD  1303               	bcf	3,6	;RP1=0, select bank0
  3307  01DE  0081               	movwf	1	;volatile
  3308  01DF                     i1l2672:
  3309                           
  3310                           ;teste_b4.c: 269: TMR0IF = 0;
  3311  01DF  110B               	bcf	11,2	;volatile
  3312  01E0                     i1l2674:
  3313                           
  3314                           ;teste_b4.c: 270: };teste_b4.c: 273: if (TMR1IF)
  3315  01E0  1C0C               	btfss	12,0	;volatile
  3316  01E1  29E3               	goto	u181_21
  3317  01E2  29E4               	goto	u181_20
  3318  01E3                     u181_21:
  3319  01E3  2A05               	goto	i1l423
  3320  01E4                     u181_20:
  3321  01E4                     i1l2676:
  3322                           
  3323                           ;teste_b4.c: 274: {;teste_b4.c: 275: adc_sample_and_update_average();
  3324  01E4  120A  118A  22E0  120A  118A  	fcall	_adc_sample_and_update_average
  3325  01E9                     i1l2678:
  3326                           
  3327                           ;teste_b4.c: 276: if (++t_1sec == 10)
  3328  01E9  3001               	movlw	1
  3329  01EA  00FF               	movwf	btemp+1
  3330  01EB  087F               	movf	btemp+1,w
  3331  01EC  1283               	bcf	3,5	;RP0=0, select bank0
  3332  01ED  1303               	bcf	3,6	;RP1=0, select bank0
  3333  01EE  07CE               	addwf	_t_1sec,f
  3334  01EF  300A               	movlw	10
  3335  01F0  064E               	xorwf	_t_1sec,w
  3336  01F1  1D03               	btfss	3,2
  3337  01F2  29F4               	goto	u182_21
  3338  01F3  29F5               	goto	u182_20
  3339  01F4                     u182_21:
  3340  01F4  29FB               	goto	i1l2684
  3341  01F5                     u182_20:
  3342  01F5                     i1l2680:
  3343                           
  3344                           ;teste_b4.c: 277: {;teste_b4.c: 278: t_1sec = 0;
  3345  01F5  01CE               	clrf	_t_1sec
  3346  01F6                     i1l2682:
  3347                           
  3348                           ;teste_b4.c: 279: _1s_handler();
  3349  01F6  120A  118A  25B2  120A  118A  	fcall	__1s_handler
  3350  01FB                     i1l2684:
  3351                           
  3352                           ;teste_b4.c: 280: };teste_b4.c: 282: TMR1H = 0x0b;
  3353  01FB  300B               	movlw	11
  3354  01FC  1283               	bcf	3,5	;RP0=0, select bank0
  3355  01FD  1303               	bcf	3,6	;RP1=0, select bank0
  3356  01FE  008F               	movwf	15	;volatile
  3357  01FF                     i1l2686:
  3358                           
  3359                           ;teste_b4.c: 283: TMR1L = 0xdc;
  3360  01FF  30DC               	movlw	220
  3361  0200  008E               	movwf	14	;volatile
  3362  0201                     i1l2688:
  3363                           
  3364                           ;teste_b4.c: 284: TMR1IF = 0;
  3365  0201  100C               	bcf	12,0	;volatile
  3366  0202                     i1l2690:
  3367                           
  3368                           ;teste_b4.c: 285: TMR1ON = 1;
  3369  0202  1410               	bsf	16,0	;volatile
  3370  0203  2A05               	goto	i1l423
  3371  0204                     i1l2692:
  3372                           
  3373                           ;teste_b4.c: 289: else;teste_b4.c: 290: {;teste_b4.c: 292: PORTD = 0x00;
  3374  0204  0188               	clrf	8	;volatile
  3375  0205                     i1l423:
  3376  0205  0835               	movf	??_ISR+3,w
  3377  0206  00FF               	movwf	btemp+1
  3378  0207  0834               	movf	??_ISR+2,w
  3379  0208  008A               	movwf	10
  3380  0209  0833               	movf	??_ISR+1,w
  3381  020A  0084               	movwf	4
  3382  020B  0E32               	swapf	??_ISR^0,w
  3383  020C  0083               	movwf	3
  3384  020D  0EFE               	swapf	btemp,f
  3385  020E  0E7E               	swapf	btemp,w
  3386  020F  0009               	retfie
  3387  0210                     __end_of_ISR:
  3388                           
  3389                           	psect	intentry
  3390  0004                     __pintentry:	
  3391                           ;incstack = 0
  3392 ;; hardware stack exceeded
  3393                           ; Regs used in _ISR: [wreg-fsr0h+status,2+status,0+btemp+1+pclath+cstack]
  3394                           
  3395  0004                     interrupt_function:
  3396  007E                     saved_w	set	btemp
  3397  0004  00FE               	movwf	btemp
  3398  0005  0E03               	swapf	3,w
  3399  0006  1283               	bcf	3,5	;RP0=0, select bank0
  3400  0007  1303               	bcf	3,6	;RP1=0, select bank0
  3401  0008  00B2               	movwf	??_ISR
  3402  0009  0804               	movf	4,w
  3403  000A  00B3               	movwf	??_ISR+1
  3404  000B  080A               	movf	10,w
  3405  000C  00B4               	movwf	??_ISR+2
  3406  000D  087F               	movf	btemp+1,w
  3407  000E  00B5               	movwf	??_ISR+3
  3408  000F  120A  118A  29A3   	ljmp	_ISR
  3409                           
  3410                           	psect	text18
  3411  010C                     __ptext18:	
  3412 ;; *************** function _show_7sd *****************
  3413 ;; Defined at:
  3414 ;;		line 124 in file "teste_b4.c"
  3415 ;; Parameters:    Size  Location     Type
  3416 ;;		None
  3417 ;; Auto vars:     Size  Location     Type
  3418 ;;		None
  3419 ;; Return value:  Size  Location     Type
  3420 ;;                  1    wreg      void 
  3421 ;; Registers used:
  3422 ;;		wreg, fsr0l, fsr0h, status,2, status,0, btemp+1, pclath, cstack
  3423 ;; Tracked objects:
  3424 ;;		On entry : 0/0
  3425 ;;		On exit  : 0/0
  3426 ;;		Unchanged: 0/0
  3427 ;; Data sizes:     COMMON   BANK0   BANK1   BANK3   BANK2
  3428 ;;      Params:         0       0       0       0       0
  3429 ;;      Locals:         0       0       0       0       0
  3430 ;;      Temps:          0       0       0       0       0
  3431 ;;      Totals:         0       0       0       0       0
  3432 ;;Total ram usage:        0 bytes
  3433 ;; Hardware stack levels used:    1
  3434 ;; Hardware stack levels required when called:    1
  3435 ;; This function calls:
  3436 ;;		___lwdiv
  3437 ;;		___lwmod
  3438 ;;		_display7s
  3439 ;; This function is called by:
  3440 ;;		_ISR
  3441 ;; This function uses a non-reentrant model
  3442 ;;
  3443                           
  3444                           
  3445                           ;psect for function _show_7sd
  3446  010C                     _show_7sd:
  3447  010C                     i1l2504:	
  3448                           ;incstack = 0
  3449                           ; Regs used in _show_7sd: [wreg-fsr0h+status,2+status,0+btemp+1+pclath+cstack]
  3450                           
  3451                           
  3452                           ;teste_b4.c: 126: switch (i_7sd)
  3453  010C  2995               	goto	i1l2534
  3454  010D                     i1l2506:
  3455                           
  3456                           ;teste_b4.c: 129: PORTA = 0x20;
  3457  010D  3020               	movlw	32
  3458  010E  0085               	movwf	5	;volatile
  3459  010F                     i1l2508:
  3460                           
  3461                           ;teste_b4.c: 130: PORTD = _7sd_mask & (display7s(12));
  3462  010F  300C               	movlw	12
  3463  0110  120A  118A  2393  120A  118A  	fcall	_display7s
  3464  0115  1283               	bcf	3,5	;RP0=0, select bank0
  3465  0116  1303               	bcf	3,6	;RP1=0, select bank0
  3466  0117  0556               	andwf	__7sd_mask,w
  3467  0118  0088               	movwf	8	;volatile
  3468  0119                     i1l2510:
  3469                           
  3470                           ;teste_b4.c: 131: i_7sd = 1;
  3471  0119  01CD               	clrf	_i_7sd
  3472  011A  0ACD               	incf	_i_7sd,f
  3473                           
  3474                           ;teste_b4.c: 132: break;
  3475  011B  29A2               	goto	i1l387
  3476  011C                     i1l2512:
  3477                           
  3478                           ;teste_b4.c: 134: PORTA = 0x10;
  3479  011C  3010               	movlw	16
  3480  011D  0085               	movwf	5	;volatile
  3481  011E                     i1l2514:
  3482                           
  3483                           ;teste_b4.c: 135: if (state == 'S')
  3484  011E  3053               	movlw	83
  3485  011F  0657               	xorwf	_state,w
  3486  0120  1D03               	btfss	3,2
  3487  0121  2923               	goto	u167_21
  3488  0122  2924               	goto	u167_20
  3489  0123                     u167_21:
  3490  0123  293C               	goto	i1l2518
  3491  0124                     u167_20:
  3492  0124                     i1l2516:
  3493                           
  3494                           ;teste_b4.c: 136: PORTD = _7sd_mask & (display7s((unsigned char)(set_temperature % 10)))
      +                          ;
  3495  0124  300A               	movlw	10
  3496  0125  00F0               	movwf	___lwmod@divisor
  3497  0126  3000               	movlw	0
  3498  0127  00F1               	movwf	___lwmod@divisor+1
  3499  0128  0853               	movf	_set_temperature+1,w
  3500  0129  00F3               	movwf	___lwmod@dividend+1
  3501  012A  0852               	movf	_set_temperature,w
  3502  012B  00F2               	movwf	___lwmod@dividend
  3503  012C  120A  118A  266E  120A  118A  	fcall	___lwmod
  3504  0131  0870               	movf	?___lwmod,w
  3505  0132  120A  118A  2393  120A  118A  	fcall	_display7s
  3506  0137  1283               	bcf	3,5	;RP0=0, select bank0
  3507  0138  1303               	bcf	3,6	;RP1=0, select bank0
  3508  0139  0556               	andwf	__7sd_mask,w
  3509  013A  0088               	movwf	8	;volatile
  3510  013B  2953               	goto	i1l2520
  3511  013C                     i1l2518:
  3512                           
  3513                           ;teste_b4.c: 137: else;teste_b4.c: 138: PORTD = _7sd_mask & (display7s((unsigned char)(a
      +                          vg_measured_temperature % 10)));
  3514  013C  300A               	movlw	10
  3515  013D  00F0               	movwf	___lwmod@divisor
  3516  013E  3000               	movlw	0
  3517  013F  00F1               	movwf	___lwmod@divisor+1
  3518  0140  0855               	movf	_avg_measured_temperature+1,w
  3519  0141  00F3               	movwf	___lwmod@dividend+1
  3520  0142  0854               	movf	_avg_measured_temperature,w
  3521  0143  00F2               	movwf	___lwmod@dividend
  3522  0144  120A  118A  266E  120A  118A  	fcall	___lwmod
  3523  0149  0870               	movf	?___lwmod,w
  3524  014A  120A  118A  2393  120A  118A  	fcall	_display7s
  3525  014F  1283               	bcf	3,5	;RP0=0, select bank0
  3526  0150  1303               	bcf	3,6	;RP1=0, select bank0
  3527  0151  0556               	andwf	__7sd_mask,w
  3528  0152  0088               	movwf	8	;volatile
  3529  0153                     i1l2520:
  3530                           
  3531                           ;teste_b4.c: 139: i_7sd = 2;
  3532  0153  3002               	movlw	2
  3533  0154  00FF               	movwf	btemp+1
  3534  0155  087F               	movf	btemp+1,w
  3535  0156  00CD               	movwf	_i_7sd
  3536                           
  3537                           ;teste_b4.c: 140: break;
  3538  0157  29A2               	goto	i1l387
  3539  0158                     i1l2522:
  3540                           
  3541                           ;teste_b4.c: 142: PORTA = 0x08;
  3542  0158  3008               	movlw	8
  3543  0159  0085               	movwf	5	;volatile
  3544  015A                     i1l2524:
  3545                           
  3546                           ;teste_b4.c: 143: if (state == 'S')
  3547  015A  3053               	movlw	83
  3548  015B  0657               	xorwf	_state,w
  3549  015C  1D03               	btfss	3,2
  3550  015D  295F               	goto	u168_21
  3551  015E  2960               	goto	u168_20
  3552  015F                     u168_21:
  3553  015F  297A               	goto	i1l2528
  3554  0160                     u168_20:
  3555  0160                     i1l2526:
  3556                           
  3557                           ;teste_b4.c: 144: PORTD = _7sd_mask & (display7s((unsigned char)(set_temperature / 10)))
      +                          ;
  3558  0160  300A               	movlw	10
  3559  0161  00A2               	movwf	___lwdiv@divisor
  3560  0162  3000               	movlw	0
  3561  0163  00A3               	movwf	___lwdiv@divisor+1
  3562  0164  0853               	movf	_set_temperature+1,w
  3563  0165  00A5               	movwf	___lwdiv@dividend+1
  3564  0166  0852               	movf	_set_temperature,w
  3565  0167  00A4               	movwf	___lwdiv@dividend
  3566  0168  120A  118A  2526  120A  118A  	fcall	___lwdiv
  3567  016D  1283               	bcf	3,5	;RP0=0, select bank0
  3568  016E  1303               	bcf	3,6	;RP1=0, select bank0
  3569  016F  0822               	movf	?___lwdiv,w
  3570  0170  120A  118A  2393  120A  118A  	fcall	_display7s
  3571  0175  1283               	bcf	3,5	;RP0=0, select bank0
  3572  0176  1303               	bcf	3,6	;RP1=0, select bank0
  3573  0177  0556               	andwf	__7sd_mask,w
  3574  0178  0088               	movwf	8	;volatile
  3575  0179  2993               	goto	i1l2530
  3576  017A                     i1l2528:
  3577                           
  3578                           ;teste_b4.c: 145: else;teste_b4.c: 146: PORTD = _7sd_mask & (display7s((unsigned char)(a
      +                          vg_measured_temperature / 10)));
  3579  017A  300A               	movlw	10
  3580  017B  00A2               	movwf	___lwdiv@divisor
  3581  017C  3000               	movlw	0
  3582  017D  00A3               	movwf	___lwdiv@divisor+1
  3583  017E  0855               	movf	_avg_measured_temperature+1,w
  3584  017F  00A5               	movwf	___lwdiv@dividend+1
  3585  0180  0854               	movf	_avg_measured_temperature,w
  3586  0181  00A4               	movwf	___lwdiv@dividend
  3587  0182  120A  118A  2526  120A  118A  	fcall	___lwdiv
  3588  0187  1283               	bcf	3,5	;RP0=0, select bank0
  3589  0188  1303               	bcf	3,6	;RP1=0, select bank0
  3590  0189  0822               	movf	?___lwdiv,w
  3591  018A  120A  118A  2393  120A  118A  	fcall	_display7s
  3592  018F  1283               	bcf	3,5	;RP0=0, select bank0
  3593  0190  1303               	bcf	3,6	;RP1=0, select bank0
  3594  0191  0556               	andwf	__7sd_mask,w
  3595  0192  0088               	movwf	8	;volatile
  3596  0193                     i1l2530:
  3597                           
  3598                           ;teste_b4.c: 147: i_7sd = 0;
  3599  0193  01CD               	clrf	_i_7sd
  3600                           
  3601                           ;teste_b4.c: 148: break;
  3602  0194  29A2               	goto	i1l387
  3603  0195                     i1l2534:
  3604  0195  1283               	bcf	3,5	;RP0=0, select bank0
  3605  0196  1303               	bcf	3,6	;RP1=0, select bank0
  3606  0197  084D               	movf	_i_7sd,w
  3607                           
  3608                           ; Switch size 1, requested type "simple"
  3609                           ; Number of cases is 3, Range of values is 0 to 2
  3610                           ; switch strategies available:
  3611                           ; Name         Instructions Cycles
  3612                           ; simple_byte           10     6 (average)
  3613                           ; direct_byte           17     8 (fixed)
  3614                           ; jumptable            260     6 (fixed)
  3615                           ;	Chosen strategy is simple_byte
  3616  0198  3A00               	xorlw	0	; case 0
  3617  0199  1903               	skipnz
  3618  019A  290D               	goto	i1l2506
  3619  019B  3A01               	xorlw	1	; case 1
  3620  019C  1903               	skipnz
  3621  019D  291C               	goto	i1l2512
  3622  019E  3A03               	xorlw	3	; case 2
  3623  019F  1903               	skipnz
  3624  01A0  2958               	goto	i1l2522
  3625  01A1  29A2               	goto	i1l387
  3626  01A2                     i1l387:
  3627  01A2  0008               	return
  3628  01A3                     __end_of_show_7sd:
  3629                           
  3630                           	psect	text19
  3631  0393                     __ptext19:	
  3632 ;; *************** function _display7s *****************
  3633 ;; Defined at:
  3634 ;;		line 35 in file "display7s.c"
  3635 ;; Parameters:    Size  Location     Type
  3636 ;;  v               1    wreg     unsigned char 
  3637 ;; Auto vars:     Size  Location     Type
  3638 ;;  v               1    0[COMMON] unsigned char 
  3639 ;; Return value:  Size  Location     Type
  3640 ;;                  1    wreg      unsigned char 
  3641 ;; Registers used:
  3642 ;;		wreg, fsr0l, fsr0h, status,2, status,0
  3643 ;; Tracked objects:
  3644 ;;		On entry : 0/0
  3645 ;;		On exit  : 0/0
  3646 ;;		Unchanged: 0/0
  3647 ;; Data sizes:     COMMON   BANK0   BANK1   BANK3   BANK2
  3648 ;;      Params:         0       0       0       0       0
  3649 ;;      Locals:         1       0       0       0       0
  3650 ;;      Temps:          0       0       0       0       0
  3651 ;;      Totals:         1       0       0       0       0
  3652 ;;Total ram usage:        1 bytes
  3653 ;; Hardware stack levels used:    1
  3654 ;; This function calls:
  3655 ;;		Nothing
  3656 ;; This function is called by:
  3657 ;;		_show_7sd
  3658 ;; This function uses a non-reentrant model
  3659 ;;
  3660                           
  3661                           
  3662                           ;psect for function _display7s
  3663  0393                     _display7s:
  3664                           
  3665                           ;incstack = 0
  3666                           ; Regs used in _display7s: [wreg-fsr0h+status,2+status,0]
  3667                           ;display7s@v stored from wreg
  3668  0393  00F0               	movwf	display7s@v
  3669  0394                     i1l2288:
  3670                           
  3671                           ;display7s.c: 37: switch(v)
  3672  0394  2BB7               	goto	i1l2360
  3673  0395                     i1l2290:
  3674                           
  3675                           ;display7s.c: 40: return 0x3F;
  3676  0395  303F               	movlw	63
  3677  0396  2BE9               	goto	i1l37
  3678  0397                     i1l2294:
  3679                           
  3680                           ;display7s.c: 42: return 0x06;
  3681  0397  3006               	movlw	6
  3682  0398  2BE9               	goto	i1l37
  3683  0399                     i1l2298:
  3684                           
  3685                           ;display7s.c: 44: return 0x5B;
  3686  0399  305B               	movlw	91
  3687  039A  2BE9               	goto	i1l37
  3688  039B                     i1l2302:
  3689                           
  3690                           ;display7s.c: 46: return 0x4F;
  3691  039B  304F               	movlw	79
  3692  039C  2BE9               	goto	i1l37
  3693  039D                     i1l2306:
  3694                           
  3695                           ;display7s.c: 48: return 0x66;
  3696  039D  3066               	movlw	102
  3697  039E  2BE9               	goto	i1l37
  3698  039F                     i1l2310:
  3699                           
  3700                           ;display7s.c: 50: return 0x6D;
  3701  039F  306D               	movlw	109
  3702  03A0  2BE9               	goto	i1l37
  3703  03A1                     i1l2314:
  3704                           
  3705                           ;display7s.c: 52: return 0x7D;
  3706  03A1  307D               	movlw	125
  3707  03A2  2BE9               	goto	i1l37
  3708  03A3                     i1l2318:
  3709                           
  3710                           ;display7s.c: 54: return 0x07;
  3711  03A3  3007               	movlw	7
  3712  03A4  2BE9               	goto	i1l37
  3713  03A5                     i1l2322:
  3714                           
  3715                           ;display7s.c: 56: return 0x7F;
  3716  03A5  307F               	movlw	127
  3717  03A6  2BE9               	goto	i1l37
  3718  03A7                     i1l2326:
  3719                           
  3720                           ;display7s.c: 58: return 0x6F;
  3721  03A7  306F               	movlw	111
  3722  03A8  2BE9               	goto	i1l37
  3723  03A9                     i1l2330:
  3724                           
  3725                           ;display7s.c: 60: return 0x77;
  3726  03A9  3077               	movlw	119
  3727  03AA  2BE9               	goto	i1l37
  3728  03AB                     i1l2334:
  3729                           
  3730                           ;display7s.c: 62: return 0x7c;
  3731  03AB  307C               	movlw	124
  3732  03AC  2BE9               	goto	i1l37
  3733  03AD                     i1l2338:
  3734                           
  3735                           ;display7s.c: 64: return 0x58;
  3736  03AD  3058               	movlw	88
  3737  03AE  2BE9               	goto	i1l37
  3738  03AF                     i1l2342:
  3739                           
  3740                           ;display7s.c: 66: return 0x5E;
  3741  03AF  305E               	movlw	94
  3742  03B0  2BE9               	goto	i1l37
  3743  03B1                     i1l2346:
  3744                           
  3745                           ;display7s.c: 68: return 0x79;
  3746  03B1  3079               	movlw	121
  3747  03B2  2BE9               	goto	i1l37
  3748  03B3                     i1l2350:
  3749                           
  3750                           ;display7s.c: 70: return 0x71;
  3751  03B3  3071               	movlw	113
  3752  03B4  2BE9               	goto	i1l37
  3753  03B5                     i1l2354:
  3754                           
  3755                           ;display7s.c: 72: return 0;
  3756  03B5  3000               	movlw	0
  3757  03B6  2BE9               	goto	i1l37
  3758  03B7                     i1l2360:
  3759  03B7  0870               	movf	display7s@v,w
  3760                           
  3761                           ; Switch size 1, requested type "simple"
  3762                           ; Number of cases is 16, Range of values is 0 to 15
  3763                           ; switch strategies available:
  3764                           ; Name         Instructions Cycles
  3765                           ; simple_byte           49    25 (average)
  3766                           ; direct_byte           56     8 (fixed)
  3767                           ; jumptable            260     6 (fixed)
  3768                           ;	Chosen strategy is simple_byte
  3769  03B8  3A00               	xorlw	0	; case 0
  3770  03B9  1903               	skipnz
  3771  03BA  2B95               	goto	i1l2290
  3772  03BB  3A01               	xorlw	1	; case 1
  3773  03BC  1903               	skipnz
  3774  03BD  2B97               	goto	i1l2294
  3775  03BE  3A03               	xorlw	3	; case 2
  3776  03BF  1903               	skipnz
  3777  03C0  2B99               	goto	i1l2298
  3778  03C1  3A01               	xorlw	1	; case 3
  3779  03C2  1903               	skipnz
  3780  03C3  2B9B               	goto	i1l2302
  3781  03C4  3A07               	xorlw	7	; case 4
  3782  03C5  1903               	skipnz
  3783  03C6  2B9D               	goto	i1l2306
  3784  03C7  3A01               	xorlw	1	; case 5
  3785  03C8  1903               	skipnz
  3786  03C9  2B9F               	goto	i1l2310
  3787  03CA  3A03               	xorlw	3	; case 6
  3788  03CB  1903               	skipnz
  3789  03CC  2BA1               	goto	i1l2314
  3790  03CD  3A01               	xorlw	1	; case 7
  3791  03CE  1903               	skipnz
  3792  03CF  2BA3               	goto	i1l2318
  3793  03D0  3A0F               	xorlw	15	; case 8
  3794  03D1  1903               	skipnz
  3795  03D2  2BA5               	goto	i1l2322
  3796  03D3  3A01               	xorlw	1	; case 9
  3797  03D4  1903               	skipnz
  3798  03D5  2BA7               	goto	i1l2326
  3799  03D6  3A03               	xorlw	3	; case 10
  3800  03D7  1903               	skipnz
  3801  03D8  2BA9               	goto	i1l2330
  3802  03D9  3A01               	xorlw	1	; case 11
  3803  03DA  1903               	skipnz
  3804  03DB  2BAB               	goto	i1l2334
  3805  03DC  3A07               	xorlw	7	; case 12
  3806  03DD  1903               	skipnz
  3807  03DE  2BAD               	goto	i1l2338
  3808  03DF  3A01               	xorlw	1	; case 13
  3809  03E0  1903               	skipnz
  3810  03E1  2BAF               	goto	i1l2342
  3811  03E2  3A03               	xorlw	3	; case 14
  3812  03E3  1903               	skipnz
  3813  03E4  2BB1               	goto	i1l2346
  3814  03E5  3A01               	xorlw	1	; case 15
  3815  03E6  1903               	skipnz
  3816  03E7  2BB3               	goto	i1l2350
  3817  03E8  2BB5               	goto	i1l2354
  3818  03E9                     i1l37:
  3819  03E9  0008               	return
  3820  03EA                     __end_of_display7s:
  3821                           
  3822                           	psect	text20
  3823  066E                     __ptext20:	
  3824 ;; *************** function ___lwmod *****************
  3825 ;; Defined at:
  3826 ;;		line 5 in file "C:\Program Files\Microchip\xc8\v2.20\pic\sources\c90\common\lwmod.c"
  3827 ;; Parameters:    Size  Location     Type
  3828 ;;  divisor         2    0[COMMON] unsigned int 
  3829 ;;  dividend        2    2[COMMON] unsigned int 
  3830 ;; Auto vars:     Size  Location     Type
  3831 ;;  counter         1    4[COMMON] unsigned char 
  3832 ;; Return value:  Size  Location     Type
  3833 ;;                  2    0[COMMON] unsigned int 
  3834 ;; Registers used:
  3835 ;;		wreg, status,2, status,0, btemp+1
  3836 ;; Tracked objects:
  3837 ;;		On entry : 0/0
  3838 ;;		On exit  : 0/0
  3839 ;;		Unchanged: 0/0
  3840 ;; Data sizes:     COMMON   BANK0   BANK1   BANK3   BANK2
  3841 ;;      Params:         4       0       0       0       0
  3842 ;;      Locals:         1       0       0       0       0
  3843 ;;      Temps:          0       0       0       0       0
  3844 ;;      Totals:         5       0       0       0       0
  3845 ;;Total ram usage:        5 bytes
  3846 ;; Hardware stack levels used:    1
  3847 ;; This function calls:
  3848 ;;		Nothing
  3849 ;; This function is called by:
  3850 ;;		_show_7sd
  3851 ;; This function uses a non-reentrant model
  3852 ;;
  3853                           
  3854                           
  3855                           ;psect for function ___lwmod
  3856  066E                     ___lwmod:
  3857  066E                     i1l2416:	
  3858                           ;incstack = 0
  3859                           ; Regs used in ___lwmod: [wreg+status,2+status,0+btemp+1]
  3860                           
  3861  066E  0870               	movf	___lwmod@divisor,w
  3862  066F  0471               	iorwf	___lwmod@divisor+1,w
  3863  0670  1903               	btfsc	3,2
  3864  0671  2E73               	goto	u147_21
  3865  0672  2E74               	goto	u147_20
  3866  0673                     u147_21:
  3867  0673  2EA3               	goto	i1l2434
  3868  0674                     u147_20:
  3869  0674                     i1l2418:
  3870  0674  01F4               	clrf	___lwmod@counter
  3871  0675  0AF4               	incf	___lwmod@counter,f
  3872  0676  2E82               	goto	i1l2424
  3873  0677                     i1l2420:
  3874  0677  3001               	movlw	1
  3875  0678                     u148_25:
  3876  0678  1003               	clrc
  3877  0679  0DF0               	rlf	___lwmod@divisor,f
  3878  067A  0DF1               	rlf	___lwmod@divisor+1,f
  3879  067B  3EFF               	addlw	-1
  3880  067C  1D03               	skipz
  3881  067D  2E78               	goto	u148_25
  3882  067E                     i1l2422:
  3883  067E  3001               	movlw	1
  3884  067F  00FF               	movwf	btemp+1
  3885  0680  087F               	movf	btemp+1,w
  3886  0681  07F4               	addwf	___lwmod@counter,f
  3887  0682                     i1l2424:
  3888  0682  1FF1               	btfss	___lwmod@divisor+1,7
  3889  0683  2E85               	goto	u149_21
  3890  0684  2E86               	goto	u149_20
  3891  0685                     u149_21:
  3892  0685  2E77               	goto	i1l2420
  3893  0686                     u149_20:
  3894  0686                     i1l2426:
  3895  0686  0871               	movf	___lwmod@divisor+1,w
  3896  0687  0273               	subwf	___lwmod@dividend+1,w
  3897  0688  1D03               	skipz
  3898  0689  2E8C               	goto	u150_25
  3899  068A  0870               	movf	___lwmod@divisor,w
  3900  068B  0272               	subwf	___lwmod@dividend,w
  3901  068C                     u150_25:
  3902  068C  1C03               	skipc
  3903  068D  2E8F               	goto	u150_21
  3904  068E  2E90               	goto	u150_20
  3905  068F                     u150_21:
  3906  068F  2E96               	goto	i1l2430
  3907  0690                     u150_20:
  3908  0690                     i1l2428:
  3909  0690  0870               	movf	___lwmod@divisor,w
  3910  0691  02F2               	subwf	___lwmod@dividend,f
  3911  0692  0871               	movf	___lwmod@divisor+1,w
  3912  0693  1C03               	skipc
  3913  0694  03F3               	decf	___lwmod@dividend+1,f
  3914  0695  02F3               	subwf	___lwmod@dividend+1,f
  3915  0696                     i1l2430:
  3916  0696  3001               	movlw	1
  3917  0697                     u151_25:
  3918  0697  1003               	clrc
  3919  0698  0CF1               	rrf	___lwmod@divisor+1,f
  3920  0699  0CF0               	rrf	___lwmod@divisor,f
  3921  069A  3EFF               	addlw	-1
  3922  069B  1D03               	skipz
  3923  069C  2E97               	goto	u151_25
  3924  069D                     i1l2432:
  3925  069D  3001               	movlw	1
  3926  069E  02F4               	subwf	___lwmod@counter,f
  3927  069F  1D03               	btfss	3,2
  3928  06A0  2EA2               	goto	u152_21
  3929  06A1  2EA3               	goto	u152_20
  3930  06A2                     u152_21:
  3931  06A2  2E86               	goto	i1l2426
  3932  06A3                     u152_20:
  3933  06A3                     i1l2434:
  3934  06A3  0873               	movf	___lwmod@dividend+1,w
  3935  06A4  00F1               	movwf	?___lwmod+1
  3936  06A5  0872               	movf	___lwmod@dividend,w
  3937  06A6  00F0               	movwf	?___lwmod
  3938  06A7                     i1l866:
  3939  06A7  0008               	return
  3940  06A8                     __end_of___lwmod:
  3941                           
  3942                           	psect	text21
  3943  02E0                     __ptext21:	
  3944 ;; *************** function _adc_sample_and_update_average *****************
  3945 ;; Defined at:
  3946 ;;		line 182 in file "teste_b4.c"
  3947 ;; Parameters:    Size  Location     Type
  3948 ;;		None
  3949 ;; Auto vars:     Size  Location     Type
  3950 ;;		None
  3951 ;; Return value:  Size  Location     Type
  3952 ;;                  1    wreg      void 
  3953 ;; Registers used:
  3954 ;;		wreg, fsr0l, fsr0h, status,2, status,0, btemp+1, pclath, cstack
  3955 ;; Tracked objects:
  3956 ;;		On entry : 0/0
  3957 ;;		On exit  : 0/0
  3958 ;;		Unchanged: 0/0
  3959 ;; Data sizes:     COMMON   BANK0   BANK1   BANK3   BANK2
  3960 ;;      Params:         0       0       0       0       0
  3961 ;;      Locals:         0       0       0       0       0
  3962 ;;      Temps:          0       1       0       0       0
  3963 ;;      Totals:         0       1       0       0       0
  3964 ;;Total ram usage:        1 bytes
  3965 ;; Hardware stack levels used:    1
  3966 ;; Hardware stack levels required when called:    2
  3967 ;; This function calls:
  3968 ;;		___lwdiv
  3969 ;;		___wmul
  3970 ;;		_adc_init
  3971 ;;		_adc_sample
  3972 ;;		_calc_avg
  3973 ;; This function is called by:
  3974 ;;		_ISR
  3975 ;; This function uses a non-reentrant model
  3976 ;;
  3977                           
  3978                           
  3979                           ;psect for function _adc_sample_and_update_average
  3980  02E0                     _adc_sample_and_update_average:
  3981  02E0                     i1l2558:	
  3982                           ;incstack = 0
  3983 ;; hardware stack exceeded
  3984                           ; Regs used in _adc_sample_and_update_average: [wreg-fsr0h+status,2+status,0+btemp+1+pcl
      +                          ath+cstack]
  3985                           
  3986                           
  3987                           ;teste_b4.c: 184: adc_init();
  3988  02E0  120A  118A  27F4  120A  118A  	fcall	_adc_init
  3989  02E5                     i1l2560:
  3990                           
  3991                           ;teste_b4.c: 185: temps[temps_iterator++] = (adc_sample(2) * 10) / 20;
  3992  02E5  3014               	movlw	20
  3993  02E6  1283               	bcf	3,5	;RP0=0, select bank0
  3994  02E7  1303               	bcf	3,6	;RP1=0, select bank0
  3995  02E8  00A2               	movwf	___lwdiv@divisor
  3996  02E9  3000               	movlw	0
  3997  02EA  00A3               	movwf	___lwdiv@divisor+1
  3998  02EB  3002               	movlw	2
  3999  02EC  120A  118A  256C  120A  118A  	fcall	_adc_sample
  4000  02F1  0871               	movf	?_adc_sample+1,w
  4001  02F2  00FB               	movwf	___wmul@multiplier+1
  4002  02F3  0870               	movf	?_adc_sample,w
  4003  02F4  00FA               	movwf	___wmul@multiplier
  4004  02F5  300A               	movlw	10
  4005  02F6  00FC               	movwf	___wmul@multiplicand
  4006  02F7  3000               	movlw	0
  4007  02F8  00FD               	movwf	___wmul@multiplicand+1
  4008  02F9  120A  118A  26DC  120A  118A  	fcall	___wmul
  4009  02FE  087B               	movf	?___wmul+1,w
  4010  02FF  1283               	bcf	3,5	;RP0=0, select bank0
  4011  0300  1303               	bcf	3,6	;RP1=0, select bank0
  4012  0301  00A5               	movwf	___lwdiv@dividend+1
  4013  0302  087A               	movf	?___wmul,w
  4014  0303  00A4               	movwf	___lwdiv@dividend
  4015  0304  120A  118A  2526  120A  118A  	fcall	___lwdiv
  4016  0309  1283               	bcf	3,5	;RP0=0, select bank0
  4017  030A  1303               	bcf	3,6	;RP1=0, select bank0
  4018  030B  084B               	movf	_temps_iterator,w
  4019  030C  00B1               	movwf	??_adc_sample_and_update_average
  4020  030D  0731               	addwf	??_adc_sample_and_update_average,w
  4021  030E  3EA0               	addlw	(low (_temps| 0))& (0+255)
  4022  030F  0084               	movwf	4
  4023  0310  0822               	movf	?___lwdiv,w
  4024  0311  1383               	bcf	3,7	;select IRP bank1
  4025  0312  0080               	movwf	0
  4026  0313  0A84               	incf	4,f
  4027  0314  0823               	movf	?___lwdiv+1,w
  4028  0315  0080               	movwf	0
  4029  0316                     i1l2562:
  4030  0316  3001               	movlw	1
  4031  0317  07CB               	addwf	_temps_iterator,f
  4032  0318  1803               	skipnc
  4033  0319  0ACC               	incf	_temps_iterator+1,f
  4034  031A  3000               	movlw	0
  4035  031B  07CC               	addwf	_temps_iterator+1,f
  4036  031C                     i1l2564:
  4037                           
  4038                           ;teste_b4.c: 186: avg_measured_temperature = calc_avg();
  4039  031C  120A  118A  26A8  120A  118A  	fcall	_calc_avg
  4040  0321  1283               	bcf	3,5	;RP0=0, select bank0
  4041  0322  1303               	bcf	3,6	;RP1=0, select bank0
  4042  0323  082A               	movf	?_calc_avg+1,w
  4043  0324  00D5               	movwf	_avg_measured_temperature+1
  4044  0325  0829               	movf	?_calc_avg,w
  4045  0326  00D4               	movwf	_avg_measured_temperature
  4046  0327                     i1l2566:
  4047                           
  4048                           ;teste_b4.c: 187: temps_iterator = (temps_iterator > 9) ? 0 : temps_iterator;
  4049  0327  084C               	movf	_temps_iterator+1,w
  4050  0328  3A80               	xorlw	128
  4051  0329  00FF               	movwf	btemp+1
  4052  032A  3080               	movlw	128
  4053  032B  027F               	subwf	btemp+1,w
  4054  032C  1D03               	skipz
  4055  032D  2B30               	goto	u173_25
  4056  032E  300A               	movlw	10
  4057  032F  024B               	subwf	_temps_iterator,w
  4058  0330                     u173_25:
  4059  0330  1803               	skipnc
  4060  0331  2B33               	goto	u173_21
  4061  0332  2B34               	goto	u173_20
  4062  0333                     u173_21:
  4063  0333  2B35               	goto	i1l2570
  4064  0334                     u173_20:
  4065  0334  2B39               	goto	i1l404
  4066  0335                     i1l2570:
  4067  0335  1283               	bcf	3,5	;RP0=0, select bank0
  4068  0336  1303               	bcf	3,6	;RP1=0, select bank0
  4069  0337  01CB               	clrf	_temps_iterator
  4070  0338  01CC               	clrf	_temps_iterator+1
  4071  0339                     i1l404:
  4072  0339  0008               	return
  4073  033A                     __end_of_adc_sample_and_update_average:
  4074                           
  4075                           	psect	text22
  4076  06A8                     __ptext22:	
  4077 ;; *************** function _calc_avg *****************
  4078 ;; Defined at:
  4079 ;;		line 108 in file "teste_b4.c"
  4080 ;; Parameters:    Size  Location     Type
  4081 ;;		None
  4082 ;; Auto vars:     Size  Location     Type
  4083 ;;  avg             2   14[BANK0 ] unsigned int 
  4084 ;;  i               1   16[BANK0 ] unsigned char 
  4085 ;; Return value:  Size  Location     Type
  4086 ;;                  2    9[BANK0 ] unsigned int 
  4087 ;; Registers used:
  4088 ;;		wreg, fsr0l, fsr0h, status,2, status,0, btemp+1, pclath, cstack
  4089 ;; Tracked objects:
  4090 ;;		On entry : 0/0
  4091 ;;		On exit  : 0/0
  4092 ;;		Unchanged: 0/0
  4093 ;; Data sizes:     COMMON   BANK0   BANK1   BANK3   BANK2
  4094 ;;      Params:         0       2       0       0       0
  4095 ;;      Locals:         0       3       0       0       0
  4096 ;;      Temps:          0       3       0       0       0
  4097 ;;      Totals:         0       8       0       0       0
  4098 ;;Total ram usage:        8 bytes
  4099 ;; Hardware stack levels used:    1
  4100 ;; Hardware stack levels required when called:    1
  4101 ;; This function calls:
  4102 ;;		___lwdiv
  4103 ;; This function is called by:
  4104 ;;		_adc_sample_and_update_average
  4105 ;; This function uses a non-reentrant model
  4106 ;;
  4107                           
  4108                           
  4109                           ;psect for function _calc_avg
  4110  06A8                     _calc_avg:
  4111  06A8                     i1l2386:	
  4112                           ;incstack = 0
  4113 ;; hardware stack exceeded
  4114                           ; Regs used in _calc_avg: [wreg-fsr0h+status,2+status,0+btemp+1+pclath+cstack]
  4115                           
  4116                           
  4117                           ;teste_b4.c: 110: char i;;teste_b4.c: 111: unsigned int avg = 0;
  4118  06A8  1283               	bcf	3,5	;RP0=0, select bank0
  4119  06A9  1303               	bcf	3,6	;RP1=0, select bank0
  4120  06AA  01AE               	clrf	calc_avg@avg
  4121  06AB  01AF               	clrf	calc_avg@avg+1
  4122                           
  4123                           ;teste_b4.c: 112: for (i = 0; i < 10; i++)
  4124  06AC  01B0               	clrf	calc_avg@i
  4125  06AD                     i1l2392:
  4126                           
  4127                           ;teste_b4.c: 113: {;teste_b4.c: 114: avg += temps[i];
  4128  06AD  0830               	movf	calc_avg@i,w
  4129  06AE  00AB               	movwf	??_calc_avg
  4130  06AF  072B               	addwf	??_calc_avg,w
  4131  06B0  3EA0               	addlw	(low (_temps| 0))& (0+255)
  4132  06B1  0084               	movwf	4
  4133  06B2  1383               	bcf	3,7	;select IRP bank1
  4134  06B3  0800               	movf	0,w
  4135  06B4  00AC               	movwf	??_calc_avg+1
  4136  06B5  0A84               	incf	4,f
  4137  06B6  0800               	movf	0,w
  4138  06B7  00AD               	movwf	??_calc_avg+2
  4139  06B8  082C               	movf	??_calc_avg+1,w
  4140  06B9  07AE               	addwf	calc_avg@avg,f
  4141  06BA  1803               	skipnc
  4142  06BB  0AAF               	incf	calc_avg@avg+1,f
  4143  06BC  082D               	movf	??_calc_avg+2,w
  4144  06BD  07AF               	addwf	calc_avg@avg+1,f
  4145  06BE                     i1l2394:
  4146  06BE  3001               	movlw	1
  4147  06BF  00FF               	movwf	btemp+1
  4148  06C0  087F               	movf	btemp+1,w
  4149  06C1  07B0               	addwf	calc_avg@i,f
  4150  06C2                     i1l2396:
  4151  06C2  300A               	movlw	10
  4152  06C3  0230               	subwf	calc_avg@i,w
  4153  06C4  1C03               	skipc
  4154  06C5  2EC7               	goto	u142_21
  4155  06C6  2EC8               	goto	u142_20
  4156  06C7                     u142_21:
  4157  06C7  2EAD               	goto	i1l2392
  4158  06C8                     u142_20:
  4159  06C8                     i1l2398:
  4160                           
  4161                           ;teste_b4.c: 115: };teste_b4.c: 116: return avg / 10;
  4162  06C8  300A               	movlw	10
  4163  06C9  00A2               	movwf	___lwdiv@divisor
  4164  06CA  3000               	movlw	0
  4165  06CB  00A3               	movwf	___lwdiv@divisor+1
  4166  06CC  082F               	movf	calc_avg@avg+1,w
  4167  06CD  00A5               	movwf	___lwdiv@dividend+1
  4168  06CE  082E               	movf	calc_avg@avg,w
  4169  06CF  00A4               	movwf	___lwdiv@dividend
  4170  06D0  120A  118A  2526  120A  118A  	fcall	___lwdiv
  4171  06D5  1283               	bcf	3,5	;RP0=0, select bank0
  4172  06D6  1303               	bcf	3,6	;RP1=0, select bank0
  4173  06D7  0823               	movf	?___lwdiv+1,w
  4174  06D8  00AA               	movwf	?_calc_avg+1
  4175  06D9  0822               	movf	?___lwdiv,w
  4176  06DA  00A9               	movwf	?_calc_avg
  4177  06DB                     i1l374:
  4178  06DB  0008               	return
  4179  06DC                     __end_of_calc_avg:
  4180                           
  4181                           	psect	text23
  4182  0526                     __ptext23:	
  4183 ;; *************** function ___lwdiv *****************
  4184 ;; Defined at:
  4185 ;;		line 5 in file "C:\Program Files\Microchip\xc8\v2.20\pic\sources\c90\common\lwdiv.c"
  4186 ;; Parameters:    Size  Location     Type
  4187 ;;  divisor         2    2[BANK0 ] unsigned int 
  4188 ;;  dividend        2    4[BANK0 ] unsigned int 
  4189 ;; Auto vars:     Size  Location     Type
  4190 ;;  quotient        2    6[BANK0 ] unsigned int 
  4191 ;;  counter         1    8[BANK0 ] unsigned char 
  4192 ;; Return value:  Size  Location     Type
  4193 ;;                  2    2[BANK0 ] unsigned int 
  4194 ;; Registers used:
  4195 ;;		wreg, status,2, status,0, btemp+1
  4196 ;; Tracked objects:
  4197 ;;		On entry : 0/0
  4198 ;;		On exit  : 0/0
  4199 ;;		Unchanged: 0/0
  4200 ;; Data sizes:     COMMON   BANK0   BANK1   BANK3   BANK2
  4201 ;;      Params:         0       4       0       0       0
  4202 ;;      Locals:         0       3       0       0       0
  4203 ;;      Temps:          0       0       0       0       0
  4204 ;;      Totals:         0       7       0       0       0
  4205 ;;Total ram usage:        7 bytes
  4206 ;; Hardware stack levels used:    1
  4207 ;; This function calls:
  4208 ;;		Nothing
  4209 ;; This function is called by:
  4210 ;;		_calc_avg
  4211 ;;		_show_7sd
  4212 ;;		_adc_sample_and_update_average
  4213 ;; This function uses a non-reentrant model
  4214 ;;
  4215                           
  4216                           
  4217                           ;psect for function ___lwdiv
  4218  0526                     ___lwdiv:
  4219  0526                     i1l2218:	
  4220                           ;incstack = 0
  4221                           ; Regs used in ___lwdiv: [wreg+status,2+status,0+btemp+1]
  4222                           
  4223  0526  1283               	bcf	3,5	;RP0=0, select bank0
  4224  0527  1303               	bcf	3,6	;RP1=0, select bank0
  4225  0528  01A6               	clrf	___lwdiv@quotient
  4226  0529  01A7               	clrf	___lwdiv@quotient+1
  4227  052A                     i1l2220:
  4228  052A  0822               	movf	___lwdiv@divisor,w
  4229  052B  0423               	iorwf	___lwdiv@divisor+1,w
  4230  052C  1903               	btfsc	3,2
  4231  052D  2D2F               	goto	u128_21
  4232  052E  2D30               	goto	u128_20
  4233  052F                     u128_21:
  4234  052F  2D67               	goto	i1l2240
  4235  0530                     u128_20:
  4236  0530                     i1l2222:
  4237  0530  01A8               	clrf	___lwdiv@counter
  4238  0531  0AA8               	incf	___lwdiv@counter,f
  4239  0532  2D3E               	goto	i1l2228
  4240  0533                     i1l2224:
  4241  0533  3001               	movlw	1
  4242  0534                     u129_25:
  4243  0534  1003               	clrc
  4244  0535  0DA2               	rlf	___lwdiv@divisor,f
  4245  0536  0DA3               	rlf	___lwdiv@divisor+1,f
  4246  0537  3EFF               	addlw	-1
  4247  0538  1D03               	skipz
  4248  0539  2D34               	goto	u129_25
  4249  053A                     i1l2226:
  4250  053A  3001               	movlw	1
  4251  053B  00FF               	movwf	btemp+1
  4252  053C  087F               	movf	btemp+1,w
  4253  053D  07A8               	addwf	___lwdiv@counter,f
  4254  053E                     i1l2228:
  4255  053E  1FA3               	btfss	___lwdiv@divisor+1,7
  4256  053F  2D41               	goto	u130_21
  4257  0540  2D42               	goto	u130_20
  4258  0541                     u130_21:
  4259  0541  2D33               	goto	i1l2224
  4260  0542                     u130_20:
  4261  0542                     i1l2230:
  4262  0542  3001               	movlw	1
  4263  0543                     u131_25:
  4264  0543  1003               	clrc
  4265  0544  0DA6               	rlf	___lwdiv@quotient,f
  4266  0545  0DA7               	rlf	___lwdiv@quotient+1,f
  4267  0546  3EFF               	addlw	-1
  4268  0547  1D03               	skipz
  4269  0548  2D43               	goto	u131_25
  4270  0549  0823               	movf	___lwdiv@divisor+1,w
  4271  054A  0225               	subwf	___lwdiv@dividend+1,w
  4272  054B  1D03               	skipz
  4273  054C  2D4F               	goto	u132_25
  4274  054D  0822               	movf	___lwdiv@divisor,w
  4275  054E  0224               	subwf	___lwdiv@dividend,w
  4276  054F                     u132_25:
  4277  054F  1C03               	skipc
  4278  0550  2D52               	goto	u132_21
  4279  0551  2D53               	goto	u132_20
  4280  0552                     u132_21:
  4281  0552  2D5A               	goto	i1l2236
  4282  0553                     u132_20:
  4283  0553                     i1l2232:
  4284  0553  0822               	movf	___lwdiv@divisor,w
  4285  0554  02A4               	subwf	___lwdiv@dividend,f
  4286  0555  0823               	movf	___lwdiv@divisor+1,w
  4287  0556  1C03               	skipc
  4288  0557  03A5               	decf	___lwdiv@dividend+1,f
  4289  0558  02A5               	subwf	___lwdiv@dividend+1,f
  4290  0559                     i1l2234:
  4291  0559  1426               	bsf	___lwdiv@quotient,0
  4292  055A                     i1l2236:
  4293  055A  3001               	movlw	1
  4294  055B                     u133_25:
  4295  055B  1003               	clrc
  4296  055C  0CA3               	rrf	___lwdiv@divisor+1,f
  4297  055D  0CA2               	rrf	___lwdiv@divisor,f
  4298  055E  3EFF               	addlw	-1
  4299  055F  1D03               	skipz
  4300  0560  2D5B               	goto	u133_25
  4301  0561                     i1l2238:
  4302  0561  3001               	movlw	1
  4303  0562  02A8               	subwf	___lwdiv@counter,f
  4304  0563  1D03               	btfss	3,2
  4305  0564  2D66               	goto	u134_21
  4306  0565  2D67               	goto	u134_20
  4307  0566                     u134_21:
  4308  0566  2D42               	goto	i1l2230
  4309  0567                     u134_20:
  4310  0567                     i1l2240:
  4311  0567  0827               	movf	___lwdiv@quotient+1,w
  4312  0568  00A3               	movwf	?___lwdiv+1
  4313  0569  0826               	movf	___lwdiv@quotient,w
  4314  056A  00A2               	movwf	?___lwdiv
  4315  056B                     i1l856:
  4316  056B  0008               	return
  4317  056C                     __end_of___lwdiv:
  4318                           
  4319                           	psect	text24
  4320  056C                     __ptext24:	
  4321 ;; *************** function _adc_sample *****************
  4322 ;; Defined at:
  4323 ;;		line 9 in file "adc.c"
  4324 ;; Parameters:    Size  Location     Type
  4325 ;;  canal           1    wreg     unsigned char 
  4326 ;; Auto vars:     Size  Location     Type
  4327 ;;  canal           1    9[COMMON] unsigned char 
  4328 ;; Return value:  Size  Location     Type
  4329 ;;                  2    0[COMMON] unsigned int 
  4330 ;; Registers used:
  4331 ;;		wreg, fsr0l, fsr0h, status,2, status,0
  4332 ;; Tracked objects:
  4333 ;;		On entry : 0/0
  4334 ;;		On exit  : 0/0
  4335 ;;		Unchanged: 0/0
  4336 ;; Data sizes:     COMMON   BANK0   BANK1   BANK3   BANK2
  4337 ;;      Params:         2       0       0       0       0
  4338 ;;      Locals:         1       0       0       0       0
  4339 ;;      Temps:          7       0       0       0       0
  4340 ;;      Totals:        10       0       0       0       0
  4341 ;;Total ram usage:       10 bytes
  4342 ;; Hardware stack levels used:    1
  4343 ;; This function calls:
  4344 ;;		Nothing
  4345 ;; This function is called by:
  4346 ;;		_adc_sample_and_update_average
  4347 ;; This function uses a non-reentrant model
  4348 ;;
  4349                           
  4350                           
  4351                           ;psect for function _adc_sample
  4352  056C                     _adc_sample:
  4353                           
  4354                           ;incstack = 0
  4355                           ; Regs used in _adc_sample: [wreg-fsr0h+status,2+status,0]
  4356                           ;adc_sample@canal stored from wreg
  4357  056C  00F9               	movwf	adc_sample@canal
  4358  056D                     i1l2272:
  4359                           
  4360                           ;adc.c: 12: switch (canal)
  4361  056D  2D7D               	goto	i1l2282
  4362  056E                     i1l2274:
  4363                           
  4364                           ;adc.c: 15: ADCON0 = 0x01;
  4365  056E  3001               	movlw	1
  4366  056F  1283               	bcf	3,5	;RP0=0, select bank0
  4367  0570  1303               	bcf	3,6	;RP1=0, select bank0
  4368  0571  009F               	movwf	31	;volatile
  4369                           
  4370                           ;adc.c: 16: break;
  4371  0572  2D88               	goto	i1l18
  4372  0573                     i1l2276:
  4373                           
  4374                           ;adc.c: 18: ADCON0 = 0x09;
  4375  0573  3009               	movlw	9
  4376  0574  1283               	bcf	3,5	;RP0=0, select bank0
  4377  0575  1303               	bcf	3,6	;RP1=0, select bank0
  4378  0576  009F               	movwf	31	;volatile
  4379                           
  4380                           ;adc.c: 19: break;
  4381  0577  2D88               	goto	i1l18
  4382  0578                     i1l2278:
  4383                           
  4384                           ;adc.c: 21: ADCON0 = 0x11;
  4385  0578  3011               	movlw	17
  4386  0579  1283               	bcf	3,5	;RP0=0, select bank0
  4387  057A  1303               	bcf	3,6	;RP1=0, select bank0
  4388  057B  009F               	movwf	31	;volatile
  4389                           
  4390                           ;adc.c: 22: break;
  4391  057C  2D88               	goto	i1l18
  4392  057D                     i1l2282:
  4393  057D  0879               	movf	adc_sample@canal,w
  4394                           
  4395                           ; Switch size 1, requested type "simple"
  4396                           ; Number of cases is 3, Range of values is 0 to 2
  4397                           ; switch strategies available:
  4398                           ; Name         Instructions Cycles
  4399                           ; simple_byte           10     6 (average)
  4400                           ; direct_byte           17     8 (fixed)
  4401                           ; jumptable            260     6 (fixed)
  4402                           ;	Chosen strategy is simple_byte
  4403  057E  3A00               	xorlw	0	; case 0
  4404  057F  1903               	skipnz
  4405  0580  2D6E               	goto	i1l2274
  4406  0581  3A01               	xorlw	1	; case 1
  4407  0582  1903               	skipnz
  4408  0583  2D73               	goto	i1l2276
  4409  0584  3A03               	xorlw	3	; case 2
  4410  0585  1903               	skipnz
  4411  0586  2D78               	goto	i1l2278
  4412  0587  2D88               	goto	i1l18
  4413  0588                     i1l18:
  4414                           
  4415                           ;adc.c: 25: ADCON0bits.GO = 1;
  4416  0588  1283               	bcf	3,5	;RP0=0, select bank0
  4417  0589  1303               	bcf	3,6	;RP1=0, select bank0
  4418  058A  151F               	bsf	31,2	;volatile
  4419  058B                     i1l21:	
  4420                           ;adc.c: 27: ;
  4421                           
  4422  058B  191F               	btfsc	31,2	;volatile
  4423  058C  2D8E               	goto	u137_21
  4424  058D  2D8F               	goto	u137_20
  4425  058E                     u137_21:
  4426  058E  2D8B               	goto	i1l21
  4427  058F                     u137_20:
  4428  058F                     i1l2284:
  4429                           
  4430                           ;adc.c: 29: return ((((unsigned int)ADRESH) << 2) | (ADRESL >> 6));
  4431  058F  1683               	bsf	3,5	;RP0=1, select bank1
  4432  0590  1303               	bcf	3,6	;RP1=0, select bank1
  4433  0591  081E               	movf	30,w	;volatile
  4434  0592  00F2               	movwf	??_adc_sample
  4435  0593  3006               	movlw	6
  4436  0594                     u138_25:
  4437  0594  1003               	clrc
  4438  0595  0CF2               	rrf	??_adc_sample,f
  4439  0596  3EFF               	addlw	-1
  4440  0597  1D03               	skipz
  4441  0598  2D94               	goto	u138_25
  4442  0599  0872               	movf	??_adc_sample,w
  4443  059A  00F3               	movwf	??_adc_sample+1
  4444  059B  01F4               	clrf	??_adc_sample+2
  4445  059C  1283               	bcf	3,5	;RP0=0, select bank0
  4446  059D  1303               	bcf	3,6	;RP1=0, select bank0
  4447  059E  081E               	movf	30,w	;volatile
  4448  059F  00F5               	movwf	??_adc_sample+3
  4449  05A0  01F6               	clrf	??_adc_sample+4
  4450  05A1  1003               	clrc
  4451  05A2  0DF5               	rlf	??_adc_sample+3,f
  4452  05A3  0DF6               	rlf	??_adc_sample+4,f
  4453  05A4  1003               	clrc
  4454  05A5  0DF5               	rlf	??_adc_sample+3,f
  4455  05A6  0DF6               	rlf	??_adc_sample+4,f
  4456  05A7  0873               	movf	??_adc_sample+1,w
  4457  05A8  0475               	iorwf	??_adc_sample+3,w
  4458  05A9  00F7               	movwf	??_adc_sample+5
  4459  05AA  0874               	movf	??_adc_sample+2,w
  4460  05AB  0476               	iorwf	??_adc_sample+4,w
  4461  05AC  00F8               	movwf	??_adc_sample+6
  4462  05AD  0877               	movf	??_adc_sample+5,w
  4463  05AE  00F0               	movwf	?_adc_sample
  4464  05AF  0878               	movf	??_adc_sample+6,w
  4465  05B0  00F1               	movwf	?_adc_sample+1
  4466  05B1                     i1l24:
  4467  05B1  0008               	return
  4468  05B2                     __end_of_adc_sample:
  4469                           
  4470                           	psect	text25
  4471  07F4                     __ptext25:	
  4472 ;; *************** function _adc_init *****************
  4473 ;; Defined at:
  4474 ;;		line 4 in file "adc.c"
  4475 ;; Parameters:    Size  Location     Type
  4476 ;;		None
  4477 ;; Auto vars:     Size  Location     Type
  4478 ;;		None
  4479 ;; Return value:  Size  Location     Type
  4480 ;;                  1    wreg      void 
  4481 ;; Registers used:
  4482 ;;		wreg
  4483 ;; Tracked objects:
  4484 ;;		On entry : 0/0
  4485 ;;		On exit  : 0/0
  4486 ;;		Unchanged: 0/0
  4487 ;; Data sizes:     COMMON   BANK0   BANK1   BANK3   BANK2
  4488 ;;      Params:         0       0       0       0       0
  4489 ;;      Locals:         0       0       0       0       0
  4490 ;;      Temps:          0       0       0       0       0
  4491 ;;      Totals:         0       0       0       0       0
  4492 ;;Total ram usage:        0 bytes
  4493 ;; Hardware stack levels used:    1
  4494 ;; This function calls:
  4495 ;;		Nothing
  4496 ;; This function is called by:
  4497 ;;		_adc_sample_and_update_average
  4498 ;; This function uses a non-reentrant model
  4499 ;;
  4500                           
  4501                           
  4502                           ;psect for function _adc_init
  4503  07F4                     _adc_init:
  4504  07F4                     i1l2270:	
  4505                           ;incstack = 0
  4506                           ; Regs used in _adc_init: [wreg]
  4507                           
  4508                           
  4509                           ;adc.c: 6: ADCON1 = 0x02;
  4510  07F4  3002               	movlw	2
  4511  07F5  1683               	bsf	3,5	;RP0=1, select bank1
  4512  07F6  1303               	bcf	3,6	;RP1=0, select bank1
  4513  07F7  009F               	movwf	31	;volatile
  4514  07F8                     i1l13:
  4515  07F8  0008               	return
  4516  07F9                     __end_of_adc_init:
  4517                           
  4518                           	psect	text26
  4519  06DC                     __ptext26:	
  4520 ;; *************** function ___wmul *****************
  4521 ;; Defined at:
  4522 ;;		line 15 in file "C:\Program Files\Microchip\xc8\v2.20\pic\sources\c90\common\Umul16.c"
  4523 ;; Parameters:    Size  Location     Type
  4524 ;;  multiplier      2   10[COMMON] unsigned int 
  4525 ;;  multiplicand    2   12[COMMON] unsigned int 
  4526 ;; Auto vars:     Size  Location     Type
  4527 ;;  product         2    0[BANK0 ] unsigned int 
  4528 ;; Return value:  Size  Location     Type
  4529 ;;                  2   10[COMMON] unsigned int 
  4530 ;; Registers used:
  4531 ;;		wreg, status,2, status,0
  4532 ;; Tracked objects:
  4533 ;;		On entry : 0/0
  4534 ;;		On exit  : 0/0
  4535 ;;		Unchanged: 0/0
  4536 ;; Data sizes:     COMMON   BANK0   BANK1   BANK3   BANK2
  4537 ;;      Params:         4       0       0       0       0
  4538 ;;      Locals:         0       2       0       0       0
  4539 ;;      Temps:          0       0       0       0       0
  4540 ;;      Totals:         4       2       0       0       0
  4541 ;;Total ram usage:        6 bytes
  4542 ;; Hardware stack levels used:    1
  4543 ;; This function calls:
  4544 ;;		Nothing
  4545 ;; This function is called by:
  4546 ;;		_adc_sample_and_update_average
  4547 ;; This function uses a non-reentrant model
  4548 ;;
  4549                           
  4550                           
  4551                           ;psect for function ___wmul
  4552  06DC                     ___wmul:
  4553  06DC                     i1l2402:	
  4554                           ;incstack = 0
  4555                           ; Regs used in ___wmul: [wreg+status,2+status,0]
  4556                           
  4557  06DC  1283               	bcf	3,5	;RP0=0, select bank0
  4558  06DD  1303               	bcf	3,6	;RP1=0, select bank0
  4559  06DE  01A0               	clrf	___wmul@product
  4560  06DF  01A1               	clrf	___wmul@product+1
  4561  06E0                     i1l2404:
  4562  06E0  1C7A               	btfss	___wmul@multiplier,0
  4563  06E1  2EE3               	goto	u143_21
  4564  06E2  2EE4               	goto	u143_20
  4565  06E3                     u143_21:
  4566  06E3  2EEC               	goto	i1l584
  4567  06E4                     u143_20:
  4568  06E4                     i1l2406:
  4569  06E4  087C               	movf	___wmul@multiplicand,w
  4570  06E5  1283               	bcf	3,5	;RP0=0, select bank0
  4571  06E6  1303               	bcf	3,6	;RP1=0, select bank0
  4572  06E7  07A0               	addwf	___wmul@product,f
  4573  06E8  1803               	skipnc
  4574  06E9  0AA1               	incf	___wmul@product+1,f
  4575  06EA  087D               	movf	___wmul@multiplicand+1,w
  4576  06EB  07A1               	addwf	___wmul@product+1,f
  4577  06EC                     i1l584:
  4578  06EC  3001               	movlw	1
  4579  06ED                     u144_25:
  4580  06ED  1003               	clrc
  4581  06EE  0DFC               	rlf	___wmul@multiplicand,f
  4582  06EF  0DFD               	rlf	___wmul@multiplicand+1,f
  4583  06F0  3EFF               	addlw	-1
  4584  06F1  1D03               	skipz
  4585  06F2  2EED               	goto	u144_25
  4586  06F3                     i1l2408:
  4587  06F3  3001               	movlw	1
  4588  06F4                     u145_25:
  4589  06F4  1003               	clrc
  4590  06F5  0CFB               	rrf	___wmul@multiplier+1,f
  4591  06F6  0CFA               	rrf	___wmul@multiplier,f
  4592  06F7  3EFF               	addlw	-1
  4593  06F8  1D03               	skipz
  4594  06F9  2EF4               	goto	u145_25
  4595  06FA                     i1l2410:
  4596  06FA  087A               	movf	___wmul@multiplier,w
  4597  06FB  047B               	iorwf	___wmul@multiplier+1,w
  4598  06FC  1D03               	btfss	3,2
  4599  06FD  2EFF               	goto	u146_21
  4600  06FE  2F00               	goto	u146_20
  4601  06FF                     u146_21:
  4602  06FF  2EE0               	goto	i1l2404
  4603  0700                     u146_20:
  4604  0700                     i1l2412:
  4605  0700  1283               	bcf	3,5	;RP0=0, select bank0
  4606  0701  1303               	bcf	3,6	;RP1=0, select bank0
  4607  0702  0821               	movf	___wmul@product+1,w
  4608  0703  00FB               	movwf	?___wmul+1
  4609  0704  0820               	movf	___wmul@product,w
  4610  0705  00FA               	movwf	?___wmul
  4611  0706                     i1l586:
  4612  0706  0008               	return
  4613  0707                     __end_of___wmul:
  4614                           
  4615                           	psect	text27
  4616  05B2                     __ptext27:	
  4617 ;; *************** function __1s_handler *****************
  4618 ;; Defined at:
  4619 ;;		line 159 in file "teste_b4.c"
  4620 ;; Parameters:    Size  Location     Type
  4621 ;;		None
  4622 ;; Auto vars:     Size  Location     Type
  4623 ;;		None
  4624 ;; Return value:  Size  Location     Type
  4625 ;;                  1    wreg      void 
  4626 ;; Registers used:
  4627 ;;		wreg, status,2, status,0, btemp+1, pclath, cstack
  4628 ;; Tracked objects:
  4629 ;;		On entry : 0/0
  4630 ;;		On exit  : 0/0
  4631 ;;		Unchanged: 0/0
  4632 ;; Data sizes:     COMMON   BANK0   BANK1   BANK3   BANK2
  4633 ;;      Params:         0       0       0       0       0
  4634 ;;      Locals:         0       2       0       0       0
  4635 ;;      Temps:          0       0       0       0       0
  4636 ;;      Totals:         0       2       0       0       0
  4637 ;;Total ram usage:        2 bytes
  4638 ;; Hardware stack levels used:    1
  4639 ;; Hardware stack levels required when called:    4
  4640 ;; This function calls:
  4641 ;;		i1_e2pext_w
  4642 ;; This function is called by:
  4643 ;;		_ISR
  4644 ;; This function uses a non-reentrant model
  4645 ;;
  4646                           
  4647                           
  4648                           ;psect for function __1s_handler
  4649  05B2                     __1s_handler:
  4650  05B2                     i1l2536:	
  4651                           ;incstack = 0
  4652 ;; hardware stack exceeded
  4653                           ; Regs used in __1s_handler: [wreg+status,2+status,0+btemp+1+pclath+cstack]
  4654                           
  4655                           
  4656                           ;teste_b4.c: 161: if (heater_on)
  4657  05B2  1283               	bcf	3,5	;RP0=0, select bank0
  4658  05B3  1303               	bcf	3,6	;RP1=0, select bank0
  4659  05B4  0851               	movf	_heater_on,w
  4660  05B5  1903               	btfsc	3,2
  4661  05B6  2DB8               	goto	u169_21
  4662  05B7  2DB9               	goto	u169_20
  4663  05B8                     u169_21:
  4664  05B8  2DBD               	goto	i1l2540
  4665  05B9                     u169_20:
  4666  05B9                     i1l2538:
  4667                           
  4668                           ;teste_b4.c: 162: {;teste_b4.c: 163: PORTB ^= (1 << 6);
  4669  05B9  3040               	movlw	64
  4670  05BA  00FF               	movwf	btemp+1
  4671  05BB  087F               	movf	btemp+1,w
  4672  05BC  0686               	xorwf	6,f	;volatile
  4673  05BD                     i1l2540:
  4674                           
  4675                           ;teste_b4.c: 164: };teste_b4.c: 165: if (state == 'S')
  4676  05BD  3053               	movlw	83
  4677  05BE  0657               	xorwf	_state,w
  4678  05BF  1D03               	btfss	3,2
  4679  05C0  2DC2               	goto	u170_21
  4680  05C1  2DC3               	goto	u170_20
  4681  05C2                     u170_21:
  4682  05C2  2DF1               	goto	i1l397
  4683  05C3                     u170_20:
  4684  05C3                     i1l2542:
  4685                           
  4686                           ;teste_b4.c: 166: {;teste_b4.c: 167: _7sd_mask = (_7sd_mask == 0xff) ? 0x00 : 0xff;
  4687  05C3  0A56               	incf	__7sd_mask,w
  4688  05C4  1903               	btfsc	3,2
  4689  05C5  2DC7               	goto	u171_21
  4690  05C6  2DC8               	goto	u171_20
  4691  05C7                     u171_21:
  4692  05C7  2DCD               	goto	i1l2546
  4693  05C8                     u171_20:
  4694  05C8                     i1l2544:
  4695  05C8  30FF               	movlw	255
  4696  05C9  00A5               	movwf	__1s_handler$500
  4697  05CA  3000               	movlw	0
  4698  05CB  00A6               	movwf	__1s_handler$500+1
  4699  05CC  2DCF               	goto	i1l2548
  4700  05CD                     i1l2546:
  4701  05CD  01A5               	clrf	__1s_handler$500
  4702  05CE  01A6               	clrf	__1s_handler$500+1
  4703  05CF                     i1l2548:
  4704  05CF  0825               	movf	__1s_handler$500,w
  4705  05D0  00FF               	movwf	btemp+1
  4706  05D1  087F               	movf	btemp+1,w
  4707  05D2  00D6               	movwf	__7sd_mask
  4708  05D3                     i1l2550:
  4709                           
  4710                           ;teste_b4.c: 168: if ((++n_blinks) == 10)
  4711  05D3  3001               	movlw	1
  4712  05D4  00FF               	movwf	btemp+1
  4713  05D5  087F               	movf	btemp+1,w
  4714  05D6  07CF               	addwf	_n_blinks,f
  4715  05D7  300A               	movlw	10
  4716  05D8  064F               	xorwf	_n_blinks,w
  4717  05D9  1D03               	btfss	3,2
  4718  05DA  2DDC               	goto	u172_21
  4719  05DB  2DDD               	goto	u172_20
  4720  05DC                     u172_21:
  4721  05DC  2DF1               	goto	i1l397
  4722  05DD                     u172_20:
  4723  05DD                     i1l2552:
  4724                           
  4725                           ;teste_b4.c: 169: {;teste_b4.c: 170: e2pext_w(10, set_temperature);
  4726  05DD  300A               	movlw	10
  4727  05DE  00F9               	movwf	i1e2pext_w@addr
  4728  05DF  3000               	movlw	0
  4729  05E0  00FA               	movwf	i1e2pext_w@addr+1
  4730  05E1  0852               	movf	_set_temperature,w
  4731  05E2  00FF               	movwf	btemp+1
  4732  05E3  087F               	movf	btemp+1,w
  4733  05E4  00FB               	movwf	i1e2pext_w@val
  4734  05E5  120A  118A  227B  120A  118A  	fcall	i1_e2pext_w
  4735  05EA                     i1l2554:
  4736                           
  4737                           ;teste_b4.c: 171: n_blinks = 0;
  4738  05EA  1283               	bcf	3,5	;RP0=0, select bank0
  4739  05EB  1303               	bcf	3,6	;RP1=0, select bank0
  4740  05EC  01CF               	clrf	_n_blinks
  4741  05ED                     i1l2556:
  4742                           
  4743                           ;teste_b4.c: 172: state = 'O';
  4744  05ED  304F               	movlw	79
  4745  05EE  00FF               	movwf	btemp+1
  4746  05EF  087F               	movf	btemp+1,w
  4747  05F0  00D7               	movwf	_state
  4748  05F1                     i1l397:
  4749  05F1  0008               	return
  4750  05F2                     __end_of__1s_handler:
  4751                           
  4752                           	psect	text28
  4753  027B                     __ptext28:	
  4754 ;; *************** function i1_e2pext_w *****************
  4755 ;; Defined at:
  4756 ;;		line 65 in file "eeprom_ext.c"
  4757 ;; Parameters:    Size  Location     Type
  4758 ;;  addr            2    9[COMMON] unsigned int 
  4759 ;;  val             1   11[COMMON] unsigned char 
  4760 ;; Auto vars:     Size  Location     Type
  4761 ;;  tmp             2    3[BANK0 ] unsigned int 
  4762 ;;  nt              1    2[BANK0 ] unsigned char 
  4763 ;;  al              1    1[BANK0 ] unsigned char 
  4764 ;;  ah              1    0[BANK0 ] unsigned char 
  4765 ;; Return value:  Size  Location     Type
  4766 ;;                  1    wreg      void 
  4767 ;; Registers used:
  4768 ;;		wreg, status,2, status,0, btemp+1, pclath, cstack
  4769 ;; Tracked objects:
  4770 ;;		On entry : 0/0
  4771 ;;		On exit  : 0/0
  4772 ;;		Unchanged: 0/0
  4773 ;; Data sizes:     COMMON   BANK0   BANK1   BANK3   BANK2
  4774 ;;      Params:         3       0       0       0       0
  4775 ;;      Locals:         0       5       0       0       0
  4776 ;;      Temps:          2       0       0       0       0
  4777 ;;      Totals:         5       5       0       0       0
  4778 ;;Total ram usage:       10 bytes
  4779 ;; Hardware stack levels used:    1
  4780 ;; Hardware stack levels required when called:    3
  4781 ;; This function calls:
  4782 ;;		i1_e2pext_r
  4783 ;;		i1_i2c_start
  4784 ;;		i1_i2c_stop
  4785 ;;		i1_i2c_wb
  4786 ;; This function is called by:
  4787 ;;		__1s_handler
  4788 ;; This function uses a non-reentrant model
  4789 ;;
  4790                           
  4791                           
  4792                           ;psect for function i1_e2pext_w
  4793  027B                     i1_e2pext_w:
  4794  027B                     i1l2438:	
  4795                           ;incstack = 0
  4796 ;; hardware stack exceeded
  4797                           ; Regs used in i1_e2pext_w: [wreg+status,2+status,0+btemp+1+pclath+cstack]
  4798                           
  4799                           
  4800                           ;eeprom_ext.c: 67: unsigned int tmp;;eeprom_ext.c: 68: unsigned char ah;;eeprom_ext.c: 6
      +                          9: unsigned char al;;eeprom_ext.c: 70: unsigned char nt;;eeprom_ext.c: 72: tmp=val;
  4801  027B  087B               	movf	i1e2pext_w@val,w
  4802  027C  00FC               	movwf	??i1_e2pext_w
  4803  027D  01FD               	clrf	??i1_e2pext_w+1
  4804  027E  087C               	movf	??i1_e2pext_w,w
  4805  027F  1283               	bcf	3,5	;RP0=0, select bank0
  4806  0280  1303               	bcf	3,6	;RP1=0, select bank0
  4807  0281  00A3               	movwf	i1e2pext_w@tmp
  4808  0282  087D               	movf	??i1_e2pext_w+1,w
  4809  0283  00A4               	movwf	i1e2pext_w@tmp+1
  4810  0284                     i1l2440:
  4811                           
  4812                           ;eeprom_ext.c: 73: ah=(addr&0x0100)>>8;
  4813  0284  087A               	movf	i1e2pext_w@addr+1,w
  4814  0285  3901               	andlw	1
  4815  0286  00FF               	movwf	btemp+1
  4816  0287  087F               	movf	btemp+1,w
  4817  0288  00A0               	movwf	i1e2pext_w@ah
  4818  0289                     i1l2442:
  4819                           
  4820                           ;eeprom_ext.c: 74: al=addr&0x00FF;
  4821  0289  0879               	movf	i1e2pext_w@addr,w
  4822  028A  00FF               	movwf	btemp+1
  4823  028B  087F               	movf	btemp+1,w
  4824  028C  00A1               	movwf	i1e2pext_w@al
  4825  028D                     i1l2444:
  4826                           
  4827                           ;eeprom_ext.c: 75: nt=0;
  4828  028D  01A2               	clrf	i1e2pext_w@nt
  4829  028E                     i1l2446:
  4830                           
  4831                           ;eeprom_ext.c: 78: {;eeprom_ext.c: 79: i2c_start();
  4832  028E  120A  118A  277D  120A  118A  	fcall	i1_i2c_start
  4833  0293                     i1l2448:
  4834                           
  4835                           ;eeprom_ext.c: 80: if(ah)
  4836  0293  1283               	bcf	3,5	;RP0=0, select bank0
  4837  0294  1303               	bcf	3,6	;RP1=0, select bank0
  4838  0295  0820               	movf	i1e2pext_w@ah,w
  4839  0296  1903               	btfsc	3,2
  4840  0297  2A99               	goto	u153_21
  4841  0298  2A9A               	goto	u153_20
  4842  0299                     u153_21:
  4843  0299  2AA1               	goto	i1l2452
  4844  029A                     u153_20:
  4845  029A                     i1l2450:
  4846                           
  4847                           ;eeprom_ext.c: 81: {;eeprom_ext.c: 82: i2c_wb(0xA2);
  4848  029A  30A2               	movlw	162
  4849  029B  120A  118A  2630  120A  118A  	fcall	i1_i2c_wb
  4850                           
  4851                           ;eeprom_ext.c: 83: }
  4852  02A0  2AA7               	goto	i1l91
  4853  02A1                     i1l2452:
  4854                           
  4855                           ;eeprom_ext.c: 84: else;eeprom_ext.c: 85: {;eeprom_ext.c: 86: i2c_wb(0xA0);
  4856  02A1  30A0               	movlw	160
  4857  02A2  120A  118A  2630  120A  118A  	fcall	i1_i2c_wb
  4858  02A7                     i1l91:
  4859                           
  4860                           ;eeprom_ext.c: 87: };eeprom_ext.c: 88: i2c_wb(al);
  4861  02A7  1283               	bcf	3,5	;RP0=0, select bank0
  4862  02A8  1303               	bcf	3,6	;RP1=0, select bank0
  4863  02A9  0821               	movf	i1e2pext_w@al,w
  4864  02AA  120A  118A  2630  120A  118A  	fcall	i1_i2c_wb
  4865                           
  4866                           ;eeprom_ext.c: 89: i2c_wb(tmp);
  4867  02AF  1283               	bcf	3,5	;RP0=0, select bank0
  4868  02B0  1303               	bcf	3,6	;RP1=0, select bank0
  4869  02B1  0823               	movf	i1e2pext_w@tmp,w
  4870  02B2  120A  118A  2630  120A  118A  	fcall	i1_i2c_wb
  4871  02B7                     i1l2454:
  4872                           
  4873                           ;eeprom_ext.c: 90: i2c_stop();
  4874  02B7  120A  118A  276B  120A  118A  	fcall	i1_i2c_stop
  4875  02BC                     i1l2456:
  4876                           
  4877                           ;eeprom_ext.c: 92: nt++;
  4878  02BC  3001               	movlw	1
  4879  02BD  00FF               	movwf	btemp+1
  4880  02BE  087F               	movf	btemp+1,w
  4881  02BF  1283               	bcf	3,5	;RP0=0, select bank0
  4882  02C0  1303               	bcf	3,6	;RP1=0, select bank0
  4883  02C1  07A2               	addwf	i1e2pext_w@nt,f
  4884  02C2                     i1l2458:
  4885                           
  4886                           ;eeprom_ext.c: 93: };eeprom_ext.c: 94: while((tmp != e2pext_r(addr))&&(nt < 10));
  4887  02C2  087A               	movf	i1e2pext_w@addr+1,w
  4888  02C3  00F5               	movwf	i1e2pext_r@addr+1
  4889  02C4  0879               	movf	i1e2pext_w@addr,w
  4890  02C5  00F4               	movwf	i1e2pext_r@addr
  4891  02C6  120A  118A  24D9  120A  118A  	fcall	i1_e2pext_r
  4892  02CB  00FC               	movwf	??i1_e2pext_w
  4893  02CC  01FD               	clrf	??i1_e2pext_w+1
  4894  02CD  1283               	bcf	3,5	;RP0=0, select bank0
  4895  02CE  1303               	bcf	3,6	;RP1=0, select bank0
  4896  02CF  0824               	movf	i1e2pext_w@tmp+1,w
  4897  02D0  067D               	xorwf	??i1_e2pext_w+1,w
  4898  02D1  1D03               	skipz
  4899  02D2  2AD5               	goto	u154_25
  4900  02D3  0823               	movf	i1e2pext_w@tmp,w
  4901  02D4  067C               	xorwf	??i1_e2pext_w,w
  4902  02D5                     u154_25:
  4903  02D5  1903               	skipnz
  4904  02D6  2AD8               	goto	u154_21
  4905  02D7  2AD9               	goto	u154_20
  4906  02D8                     u154_21:
  4907  02D8  2ADF               	goto	i1l95
  4908  02D9                     u154_20:
  4909  02D9                     i1l2460:
  4910  02D9  300A               	movlw	10
  4911  02DA  0222               	subwf	i1e2pext_w@nt,w
  4912  02DB  1C03               	skipc
  4913  02DC  2ADE               	goto	u155_21
  4914  02DD  2ADF               	goto	u155_20
  4915  02DE                     u155_21:
  4916  02DE  2A8E               	goto	i1l2446
  4917  02DF                     u155_20:
  4918  02DF                     i1l95:
  4919  02DF  0008               	return
  4920  02E0                     __end_ofi1_e2pext_w:
  4921                           
  4922                           	psect	text29
  4923  04D9                     __ptext29:	
  4924 ;; *************** function i1_e2pext_r *****************
  4925 ;; Defined at:
  4926 ;;		line 29 in file "eeprom_ext.c"
  4927 ;; Parameters:    Size  Location     Type
  4928 ;;  addr            2    4[COMMON] unsigned int 
  4929 ;; Auto vars:     Size  Location     Type
  4930 ;;  ah              1    8[COMMON] unsigned char 
  4931 ;;  al              1    7[COMMON] unsigned char 
  4932 ;;  ret             1    6[COMMON] unsigned char 
  4933 ;; Return value:  Size  Location     Type
  4934 ;;                  1    wreg      unsigned char 
  4935 ;; Registers used:
  4936 ;;		wreg, status,2, status,0, btemp+1, pclath, cstack
  4937 ;; Tracked objects:
  4938 ;;		On entry : 0/0
  4939 ;;		On exit  : 0/0
  4940 ;;		Unchanged: 0/0
  4941 ;; Data sizes:     COMMON   BANK0   BANK1   BANK3   BANK2
  4942 ;;      Params:         2       0       0       0       0
  4943 ;;      Locals:         3       0       0       0       0
  4944 ;;      Temps:          0       0       0       0       0
  4945 ;;      Totals:         5       0       0       0       0
  4946 ;;Total ram usage:        5 bytes
  4947 ;; Hardware stack levels used:    1
  4948 ;; Hardware stack levels required when called:    2
  4949 ;; This function calls:
  4950 ;;		i1_i2c_rb
  4951 ;;		i1_i2c_start
  4952 ;;		i1_i2c_stop
  4953 ;;		i1_i2c_wb
  4954 ;; This function is called by:
  4955 ;;		i1_e2pext_w
  4956 ;; This function uses a non-reentrant model
  4957 ;;
  4958                           
  4959                           
  4960                           ;psect for function i1_e2pext_r
  4961  04D9                     i1_e2pext_r:
  4962  04D9                     i1l2244:	
  4963                           ;incstack = 0
  4964 ;; hardware stack exceeded
  4965                           ; Regs used in i1_e2pext_r: [wreg+status,2+status,0+btemp+1+pclath+cstack]
  4966                           
  4967                           
  4968                           ;eeprom_ext.c: 31: unsigned char ret;;eeprom_ext.c: 32: unsigned char ah;;eeprom_ext.c: 
      +                          33: unsigned char al;;eeprom_ext.c: 35: ah=(addr&0x0100)>>8;
  4969  04D9  0875               	movf	i1e2pext_r@addr+1,w
  4970  04DA  3901               	andlw	1
  4971  04DB  00FF               	movwf	btemp+1
  4972  04DC  087F               	movf	btemp+1,w
  4973  04DD  00F8               	movwf	i1e2pext_r@ah
  4974  04DE                     i1l2246:
  4975                           
  4976                           ;eeprom_ext.c: 36: al=addr&0x00FF;
  4977  04DE  0874               	movf	i1e2pext_r@addr,w
  4978  04DF  00FF               	movwf	btemp+1
  4979  04E0  087F               	movf	btemp+1,w
  4980  04E1  00F7               	movwf	i1e2pext_r@al
  4981  04E2                     i1l2248:
  4982                           
  4983                           ;eeprom_ext.c: 38: i2c_start();
  4984  04E2  120A  118A  277D  120A  118A  	fcall	i1_i2c_start
  4985  04E7                     i1l2250:
  4986                           
  4987                           ;eeprom_ext.c: 39: if(ah)
  4988  04E7  0878               	movf	i1e2pext_r@ah,w
  4989  04E8  1903               	btfsc	3,2
  4990  04E9  2CEB               	goto	u135_21
  4991  04EA  2CEC               	goto	u135_20
  4992  04EB                     u135_21:
  4993  04EB  2CF3               	goto	i1l2254
  4994  04EC                     u135_20:
  4995  04EC                     i1l2252:
  4996                           
  4997                           ;eeprom_ext.c: 40: {;eeprom_ext.c: 41: i2c_wb(0xA2);
  4998  04EC  30A2               	movlw	162
  4999  04ED  120A  118A  2630  120A  118A  	fcall	i1_i2c_wb
  5000                           
  5001                           ;eeprom_ext.c: 42: }
  5002  04F2  2CF9               	goto	i1l83
  5003  04F3                     i1l2254:
  5004                           
  5005                           ;eeprom_ext.c: 43: else;eeprom_ext.c: 44: {;eeprom_ext.c: 45: i2c_wb(0xA0);
  5006  04F3  30A0               	movlw	160
  5007  04F4  120A  118A  2630  120A  118A  	fcall	i1_i2c_wb
  5008  04F9                     i1l83:
  5009                           
  5010                           ;eeprom_ext.c: 46: };eeprom_ext.c: 47: i2c_wb(al);
  5011  04F9  0877               	movf	i1e2pext_r@al,w
  5012  04FA  120A  118A  2630  120A  118A  	fcall	i1_i2c_wb
  5013  04FF                     i1l2256:
  5014                           
  5015                           ;eeprom_ext.c: 49: i2c_start();
  5016  04FF  120A  118A  277D  120A  118A  	fcall	i1_i2c_start
  5017  0504                     i1l2258:
  5018                           
  5019                           ;eeprom_ext.c: 50: if(ah)
  5020  0504  0878               	movf	i1e2pext_r@ah,w
  5021  0505  1903               	btfsc	3,2
  5022  0506  2D08               	goto	u136_21
  5023  0507  2D09               	goto	u136_20
  5024  0508                     u136_21:
  5025  0508  2D10               	goto	i1l2262
  5026  0509                     u136_20:
  5027  0509                     i1l2260:
  5028                           
  5029                           ;eeprom_ext.c: 51: {;eeprom_ext.c: 52: i2c_wb(0xA3);
  5030  0509  30A3               	movlw	163
  5031  050A  120A  118A  2630  120A  118A  	fcall	i1_i2c_wb
  5032                           
  5033                           ;eeprom_ext.c: 53: }
  5034  050F  2D16               	goto	i1l85
  5035  0510                     i1l2262:
  5036                           
  5037                           ;eeprom_ext.c: 54: else;eeprom_ext.c: 55: {;eeprom_ext.c: 56: i2c_wb(0xA1);
  5038  0510  30A1               	movlw	161
  5039  0511  120A  118A  2630  120A  118A  	fcall	i1_i2c_wb
  5040  0516                     i1l85:
  5041                           
  5042                           ;eeprom_ext.c: 57: };eeprom_ext.c: 58: ret=i2c_rb(1);
  5043  0516  3001               	movlw	1
  5044  0517  120A  118A  243B  120A  118A  	fcall	i1_i2c_rb
  5045  051C  00FF               	movwf	btemp+1
  5046  051D  087F               	movf	btemp+1,w
  5047  051E  00F6               	movwf	i1e2pext_r@ret
  5048  051F                     i1l2264:
  5049                           
  5050                           ;eeprom_ext.c: 59: i2c_stop();
  5051  051F  120A  118A  276B  120A  118A  	fcall	i1_i2c_stop
  5052  0524                     i1l2266:
  5053                           
  5054                           ;eeprom_ext.c: 61: return ret;
  5055  0524  0876               	movf	i1e2pext_r@ret,w
  5056  0525                     i1l86:
  5057  0525  0008               	return
  5058  0526                     __end_ofi1_e2pext_r:
  5059                           
  5060                           	psect	text30
  5061  0630                     __ptext30:	
  5062 ;; *************** function i1_i2c_wb *****************
  5063 ;; Defined at:
  5064 ;;		line 69 in file "i2c.c"
  5065 ;; Parameters:    Size  Location     Type
  5066 ;;  val             1    wreg     unsigned char 
  5067 ;; Auto vars:     Size  Location     Type
  5068 ;;  val             1    2[COMMON] unsigned char 
  5069 ;;  i               1    3[COMMON] unsigned char 
  5070 ;; Return value:  Size  Location     Type
  5071 ;;                  1    wreg      void 
  5072 ;; Registers used:
  5073 ;;		wreg, status,2, status,0, btemp+1, pclath, cstack
  5074 ;; Tracked objects:
  5075 ;;		On entry : 0/0
  5076 ;;		On exit  : 0/0
  5077 ;;		Unchanged: 0/0
  5078 ;; Data sizes:     COMMON   BANK0   BANK1   BANK3   BANK2
  5079 ;;      Params:         0       0       0       0       0
  5080 ;;      Locals:         2       0       0       0       0
  5081 ;;      Temps:          2       0       0       0       0
  5082 ;;      Totals:         4       0       0       0       0
  5083 ;;Total ram usage:        4 bytes
  5084 ;; Hardware stack levels used:    1
  5085 ;; Hardware stack levels required when called:    1
  5086 ;; This function calls:
  5087 ;;		i1_delay
  5088 ;; This function is called by:
  5089 ;;		i1_e2pext_r
  5090 ;;		i1_e2pext_w
  5091 ;; This function uses a non-reentrant model
  5092 ;;
  5093                           
  5094                           
  5095                           ;psect for function i1_i2c_wb
  5096  0630                     i1_i2c_wb:
  5097                           
  5098                           ;incstack = 0
  5099 ;; hardware stack exceeded
  5100                           ; Regs used in i1_i2c_wb: [wreg+status,2+status,0+btemp+1+pclath+cstack]
  5101                           ;i1i2c_wb@val stored from wreg
  5102  0630  00F2               	movwf	i1i2c_wb@val
  5103  0631                     i1l2130:
  5104                           
  5105                           ;i2c.c: 71: unsigned char i;;i2c.c: 72: PORTCbits.RC3=0;
  5106  0631  1283               	bcf	3,5	;RP0=0, select bank0
  5107  0632  1303               	bcf	3,6	;RP1=0, select bank0
  5108  0633  1187               	bcf	7,3	;volatile
  5109  0634                     i1l2132:
  5110                           
  5111                           ;i2c.c: 73: for(i=0;i<8;i++)
  5112  0634  01F3               	clrf	i1i2c_wb@i
  5113  0635                     i1l2138:
  5114                           
  5115                           ;i2c.c: 74: {;i2c.c: 75: PORTCbits.RC4=((val>>(7-i))& 0x01);
  5116  0635  0872               	movf	i1i2c_wb@val,w
  5117  0636  00F0               	movwf	??i1_i2c_wb
  5118  0637  0873               	movf	i1i2c_wb@i,w
  5119  0638  3C07               	sublw	7
  5120  0639  3E01               	addlw	1
  5121  063A  2E3D               	goto	u121_24
  5122  063B                     u121_25:
  5123  063B  1003               	clrc
  5124  063C  0CF0               	rrf	??i1_i2c_wb,f
  5125  063D                     u121_24:
  5126  063D  3EFF               	addlw	-1
  5127  063E  1D03               	skipz
  5128  063F  2E3B               	goto	u121_25
  5129  0640  0870               	movf	??i1_i2c_wb,w
  5130  0641  3901               	andlw	1
  5131  0642  00F1               	movwf	??i1_i2c_wb+1
  5132  0643  0EF1               	swapf	??i1_i2c_wb+1,f
  5133  0644  0807               	movf	7,w	;volatile
  5134  0645  0671               	xorwf	??i1_i2c_wb+1,w
  5135  0646  39EF               	andlw	-17
  5136  0647  0671               	xorwf	??i1_i2c_wb+1,w
  5137  0648  0087               	movwf	7	;volatile
  5138  0649                     i1l2140:
  5139                           
  5140                           ;i2c.c: 76: PORTCbits.RC3=1;
  5141  0649  1587               	bsf	7,3	;volatile
  5142  064A                     i1l2142:
  5143                           
  5144                           ;i2c.c: 77: delay();
  5145  064A  120A  118A  27CD  120A  118A  	fcall	i1_delay
  5146  064F                     i1l2144:
  5147                           
  5148                           ;i2c.c: 78: PORTCbits.RC3=0;
  5149  064F  1283               	bcf	3,5	;RP0=0, select bank0
  5150  0650  1303               	bcf	3,6	;RP1=0, select bank0
  5151  0651  1187               	bcf	7,3	;volatile
  5152  0652                     i1l2146:
  5153  0652  3001               	movlw	1
  5154  0653  00FF               	movwf	btemp+1
  5155  0654  087F               	movf	btemp+1,w
  5156  0655  07F3               	addwf	i1i2c_wb@i,f
  5157  0656                     i1l2148:
  5158  0656  3008               	movlw	8
  5159  0657  0273               	subwf	i1i2c_wb@i,w
  5160  0658  1C03               	skipc
  5161  0659  2E5B               	goto	u122_21
  5162  065A  2E5C               	goto	u122_20
  5163  065B                     u122_21:
  5164  065B  2E35               	goto	i1l2138
  5165  065C                     u122_20:
  5166  065C                     i1l115:
  5167                           
  5168                           ;i2c.c: 79: };i2c.c: 80: PORTCbits.RC4=1;
  5169  065C  1607               	bsf	7,4	;volatile
  5170  065D                     i1l2150:
  5171                           
  5172                           ;i2c.c: 81: delay();
  5173  065D  120A  118A  27CD  120A  118A  	fcall	i1_delay
  5174  0662                     i1l2152:
  5175                           
  5176                           ;i2c.c: 82: PORTCbits.RC3=1;
  5177  0662  1283               	bcf	3,5	;RP0=0, select bank0
  5178  0663  1303               	bcf	3,6	;RP1=0, select bank0
  5179  0664  1587               	bsf	7,3	;volatile
  5180                           
  5181                           ;i2c.c: 83: delay();
  5182  0665  120A  118A  27CD  120A  118A  	fcall	i1_delay
  5183  066A                     i1l2154:
  5184                           
  5185                           ;i2c.c: 84: PORTCbits.RC3=0;
  5186  066A  1283               	bcf	3,5	;RP0=0, select bank0
  5187  066B  1303               	bcf	3,6	;RP1=0, select bank0
  5188  066C  1187               	bcf	7,3	;volatile
  5189  066D                     i1l116:
  5190  066D  0008               	return
  5191  066E                     __end_ofi1_i2c_wb:
  5192                           
  5193                           	psect	text31
  5194  076B                     __ptext31:	
  5195 ;; *************** function i1_i2c_stop *****************
  5196 ;; Defined at:
  5197 ;;		line 60 in file "i2c.c"
  5198 ;; Parameters:    Size  Location     Type
  5199 ;;		None
  5200 ;; Auto vars:     Size  Location     Type
  5201 ;;		None
  5202 ;; Return value:  Size  Location     Type
  5203 ;;                  1    wreg      void 
  5204 ;; Registers used:
  5205 ;;		status,2, status,0, pclath, cstack
  5206 ;; Tracked objects:
  5207 ;;		On entry : 0/0
  5208 ;;		On exit  : 0/0
  5209 ;;		Unchanged: 0/0
  5210 ;; Data sizes:     COMMON   BANK0   BANK1   BANK3   BANK2
  5211 ;;      Params:         0       0       0       0       0
  5212 ;;      Locals:         0       0       0       0       0
  5213 ;;      Temps:          0       0       0       0       0
  5214 ;;      Totals:         0       0       0       0       0
  5215 ;;Total ram usage:        0 bytes
  5216 ;; Hardware stack levels used:    1
  5217 ;; Hardware stack levels required when called:    1
  5218 ;; This function calls:
  5219 ;;		i1_delay
  5220 ;; This function is called by:
  5221 ;;		i1_e2pext_r
  5222 ;;		i1_e2pext_w
  5223 ;; This function uses a non-reentrant model
  5224 ;;
  5225                           
  5226                           
  5227                           ;psect for function i1_i2c_stop
  5228  076B                     i1_i2c_stop:
  5229  076B                     i1l2124:	
  5230                           ;incstack = 0
  5231 ;; hardware stack exceeded
  5232                           ; Regs used in i1_i2c_stop: [status,2+status,0+pclath+cstack]
  5233                           
  5234                           
  5235                           ;i2c.c: 62: PORTCbits.RC3=1;
  5236  076B  1283               	bcf	3,5	;RP0=0, select bank0
  5237  076C  1303               	bcf	3,6	;RP1=0, select bank0
  5238  076D  1587               	bsf	7,3	;volatile
  5239                           
  5240                           ;i2c.c: 63: PORTCbits.RC4=0;
  5241  076E  1207               	bcf	7,4	;volatile
  5242  076F                     i1l2126:
  5243                           
  5244                           ;i2c.c: 64: delay();
  5245  076F  120A  118A  27CD  120A  118A  	fcall	i1_delay
  5246  0774                     i1l2128:
  5247                           
  5248                           ;i2c.c: 65: PORTCbits.RC4=1;
  5249  0774  1283               	bcf	3,5	;RP0=0, select bank0
  5250  0775  1303               	bcf	3,6	;RP1=0, select bank0
  5251  0776  1607               	bsf	7,4	;volatile
  5252                           
  5253                           ;i2c.c: 66: delay();
  5254  0777  120A  118A  27CD  120A  118A  	fcall	i1_delay
  5255  077C                     i1l111:
  5256  077C  0008               	return
  5257  077D                     __end_ofi1_i2c_stop:
  5258                           
  5259                           	psect	text32
  5260  077D                     __ptext32:	
  5261 ;; *************** function i1_i2c_start *****************
  5262 ;; Defined at:
  5263 ;;		line 51 in file "i2c.c"
  5264 ;; Parameters:    Size  Location     Type
  5265 ;;		None
  5266 ;; Auto vars:     Size  Location     Type
  5267 ;;		None
  5268 ;; Return value:  Size  Location     Type
  5269 ;;                  1    wreg      void 
  5270 ;; Registers used:
  5271 ;;		status,2, status,0, pclath, cstack
  5272 ;; Tracked objects:
  5273 ;;		On entry : 0/0
  5274 ;;		On exit  : 0/0
  5275 ;;		Unchanged: 0/0
  5276 ;; Data sizes:     COMMON   BANK0   BANK1   BANK3   BANK2
  5277 ;;      Params:         0       0       0       0       0
  5278 ;;      Locals:         0       0       0       0       0
  5279 ;;      Temps:          0       0       0       0       0
  5280 ;;      Totals:         0       0       0       0       0
  5281 ;;Total ram usage:        0 bytes
  5282 ;; Hardware stack levels used:    1
  5283 ;; Hardware stack levels required when called:    1
  5284 ;; This function calls:
  5285 ;;		i1_delay
  5286 ;; This function is called by:
  5287 ;;		i1_e2pext_r
  5288 ;;		i1_e2pext_w
  5289 ;; This function uses a non-reentrant model
  5290 ;;
  5291                           
  5292                           
  5293                           ;psect for function i1_i2c_start
  5294  077D                     i1_i2c_start:
  5295  077D                     i1l2118:	
  5296                           ;incstack = 0
  5297 ;; hardware stack exceeded
  5298                           ; Regs used in i1_i2c_start: [status,2+status,0+pclath+cstack]
  5299                           
  5300                           
  5301                           ;i2c.c: 53: PORTCbits.RC3=1;
  5302  077D  1283               	bcf	3,5	;RP0=0, select bank0
  5303  077E  1303               	bcf	3,6	;RP1=0, select bank0
  5304  077F  1587               	bsf	7,3	;volatile
  5305                           
  5306                           ;i2c.c: 54: PORTCbits.RC4=1;
  5307  0780  1607               	bsf	7,4	;volatile
  5308  0781                     i1l2120:
  5309                           
  5310                           ;i2c.c: 55: delay();
  5311  0781  120A  118A  27CD  120A  118A  	fcall	i1_delay
  5312  0786                     i1l2122:
  5313                           
  5314                           ;i2c.c: 56: PORTCbits.RC4=0;
  5315  0786  1283               	bcf	3,5	;RP0=0, select bank0
  5316  0787  1303               	bcf	3,6	;RP1=0, select bank0
  5317  0788  1207               	bcf	7,4	;volatile
  5318                           
  5319                           ;i2c.c: 57: delay();
  5320  0789  120A  118A  27CD  120A  118A  	fcall	i1_delay
  5321  078E                     i1l108:
  5322  078E  0008               	return
  5323  078F                     __end_ofi1_i2c_start:
  5324                           
  5325                           	psect	text33
  5326  043B                     __ptext33:	
  5327 ;; *************** function i1_i2c_rb *****************
  5328 ;; Defined at:
  5329 ;;		line 87 in file "i2c.c"
  5330 ;; Parameters:    Size  Location     Type
  5331 ;;  ack             1    wreg     unsigned char 
  5332 ;; Auto vars:     Size  Location     Type
  5333 ;;  ack             1    1[COMMON] unsigned char 
  5334 ;;  i               1    3[COMMON] unsigned char 
  5335 ;;  ret             1    2[COMMON] unsigned char 
  5336 ;; Return value:  Size  Location     Type
  5337 ;;                  1    wreg      unsigned char 
  5338 ;; Registers used:
  5339 ;;		wreg, status,2, status,0, btemp+1, pclath, cstack
  5340 ;; Tracked objects:
  5341 ;;		On entry : 0/0
  5342 ;;		On exit  : 0/0
  5343 ;;		Unchanged: 0/0
  5344 ;; Data sizes:     COMMON   BANK0   BANK1   BANK3   BANK2
  5345 ;;      Params:         0       0       0       0       0
  5346 ;;      Locals:         3       0       0       0       0
  5347 ;;      Temps:          1       0       0       0       0
  5348 ;;      Totals:         4       0       0       0       0
  5349 ;;Total ram usage:        4 bytes
  5350 ;; Hardware stack levels used:    1
  5351 ;; Hardware stack levels required when called:    1
  5352 ;; This function calls:
  5353 ;;		i1_delay
  5354 ;; This function is called by:
  5355 ;;		i1_e2pext_r
  5356 ;; This function uses a non-reentrant model
  5357 ;;
  5358                           
  5359                           
  5360                           ;psect for function i1_i2c_rb
  5361  043B                     i1_i2c_rb:
  5362                           
  5363                           ;incstack = 0
  5364 ;; hardware stack exceeded
  5365                           ; Regs used in i1_i2c_rb: [wreg+status,2+status,0+btemp+1+pclath+cstack]
  5366                           ;i1i2c_rb@ack stored from wreg
  5367  043B  00F1               	movwf	i1i2c_rb@ack
  5368  043C                     i1l2156:
  5369                           
  5370                           ;i2c.c: 89: char i;;i2c.c: 90: unsigned char ret=0;
  5371  043C  01F2               	clrf	i1i2c_rb@ret
  5372  043D                     i1l2158:
  5373                           
  5374                           ;i2c.c: 92: PORTCbits.RC3=0;
  5375  043D  1283               	bcf	3,5	;RP0=0, select bank0
  5376  043E  1303               	bcf	3,6	;RP1=0, select bank0
  5377  043F  1187               	bcf	7,3	;volatile
  5378  0440                     i1l2160:
  5379                           
  5380                           ;i2c.c: 93: TRISCbits.TRISC4=1;
  5381  0440  1683               	bsf	3,5	;RP0=1, select bank1
  5382  0441  1303               	bcf	3,6	;RP1=0, select bank1
  5383  0442  1607               	bsf	7,4	;volatile
  5384  0443                     i1l2162:
  5385                           
  5386                           ;i2c.c: 94: PORTCbits.RC4=1;
  5387  0443  1283               	bcf	3,5	;RP0=0, select bank0
  5388  0444  1303               	bcf	3,6	;RP1=0, select bank0
  5389  0445  1607               	bsf	7,4	;volatile
  5390                           
  5391                           ;i2c.c: 95: for(i=0;i<8;i++)
  5392  0446  01F3               	clrf	i1i2c_rb@i
  5393  0447                     i1l119:
  5394                           
  5395                           ;i2c.c: 96: {;i2c.c: 97: PORTCbits.RC3=1;
  5396  0447  1587               	bsf	7,3	;volatile
  5397  0448                     i1l2168:
  5398                           
  5399                           ;i2c.c: 98: delay();
  5400  0448  120A  118A  27CD  120A  118A  	fcall	i1_delay
  5401  044D                     i1l2170:
  5402                           
  5403                           ;i2c.c: 99: ret|=(PORTCbits.RC4<<(7-i));
  5404  044D  1283               	bcf	3,5	;RP0=0, select bank0
  5405  044E  1303               	bcf	3,6	;RP1=0, select bank0
  5406  044F  0E07               	swapf	7,w	;volatile
  5407  0450  3901               	andlw	1
  5408  0451  00F0               	movwf	??i1_i2c_rb
  5409  0452  0873               	movf	i1i2c_rb@i,w
  5410  0453  3C07               	sublw	7
  5411  0454  3E01               	addlw	1
  5412  0455  2C58               	goto	u123_24
  5413  0456                     u123_25:
  5414  0456  1003               	clrc
  5415  0457  0DF0               	rlf	??i1_i2c_rb,f
  5416  0458                     u123_24:
  5417  0458  3EFF               	addlw	-1
  5418  0459  1D03               	skipz
  5419  045A  2C56               	goto	u123_25
  5420  045B  0870               	movf	??i1_i2c_rb,w
  5421  045C  00FF               	movwf	btemp+1
  5422  045D  087F               	movf	btemp+1,w
  5423  045E  04F2               	iorwf	i1i2c_rb@ret,f
  5424  045F                     i1l2172:
  5425                           
  5426                           ;i2c.c: 100: PORTCbits.RC3=0;
  5427  045F  1187               	bcf	7,3	;volatile
  5428  0460                     i1l2174:
  5429  0460  3001               	movlw	1
  5430  0461  00FF               	movwf	btemp+1
  5431  0462  087F               	movf	btemp+1,w
  5432  0463  07F3               	addwf	i1i2c_rb@i,f
  5433  0464                     i1l2176:
  5434  0464  3008               	movlw	8
  5435  0465  0273               	subwf	i1i2c_rb@i,w
  5436  0466  1C03               	skipc
  5437  0467  2C69               	goto	u124_21
  5438  0468  2C6A               	goto	u124_20
  5439  0469                     u124_21:
  5440  0469  2C47               	goto	i1l119
  5441  046A                     u124_20:
  5442  046A                     i1l120:
  5443                           
  5444                           ;i2c.c: 101: };i2c.c: 102: TRISCbits.TRISC4=0;
  5445  046A  1683               	bsf	3,5	;RP0=1, select bank1
  5446  046B  1303               	bcf	3,6	;RP1=0, select bank1
  5447  046C  1207               	bcf	7,4	;volatile
  5448  046D                     i1l2178:
  5449                           
  5450                           ;i2c.c: 103: if(ack)
  5451  046D  0871               	movf	i1i2c_rb@ack,w
  5452  046E  1903               	btfsc	3,2
  5453  046F  2C71               	goto	u125_21
  5454  0470  2C72               	goto	u125_20
  5455  0471                     u125_21:
  5456  0471  2C76               	goto	i1l121
  5457  0472                     u125_20:
  5458  0472                     i1l2180:
  5459                           
  5460                           ;i2c.c: 104: PORTCbits.RC4=0;
  5461  0472  1283               	bcf	3,5	;RP0=0, select bank0
  5462  0473  1303               	bcf	3,6	;RP1=0, select bank0
  5463  0474  1207               	bcf	7,4	;volatile
  5464  0475  2C79               	goto	i1l2182
  5465  0476                     i1l121:
  5466                           
  5467                           ;i2c.c: 105: else;i2c.c: 106: PORTCbits.RC4=1;
  5468  0476  1283               	bcf	3,5	;RP0=0, select bank0
  5469  0477  1303               	bcf	3,6	;RP1=0, select bank0
  5470  0478  1607               	bsf	7,4	;volatile
  5471  0479                     i1l2182:
  5472                           
  5473                           ;i2c.c: 107: delay();
  5474  0479  120A  118A  27CD  120A  118A  	fcall	i1_delay
  5475  047E                     i1l2184:
  5476                           
  5477                           ;i2c.c: 108: PORTCbits.RC3=1;
  5478  047E  1283               	bcf	3,5	;RP0=0, select bank0
  5479  047F  1303               	bcf	3,6	;RP1=0, select bank0
  5480  0480  1587               	bsf	7,3	;volatile
  5481                           
  5482                           ;i2c.c: 109: delay();
  5483  0481  120A  118A  27CD  120A  118A  	fcall	i1_delay
  5484  0486                     i1l2186:
  5485                           
  5486                           ;i2c.c: 110: PORTCbits.RC3=0;
  5487  0486  1283               	bcf	3,5	;RP0=0, select bank0
  5488  0487  1303               	bcf	3,6	;RP1=0, select bank0
  5489  0488  1187               	bcf	7,3	;volatile
  5490  0489                     i1l2188:
  5491                           
  5492                           ;i2c.c: 112: return ret;
  5493  0489  0872               	movf	i1i2c_rb@ret,w
  5494  048A                     i1l123:
  5495  048A  0008               	return
  5496  048B                     __end_ofi1_i2c_rb:
  5497                           
  5498                           	psect	text34
  5499  07CD                     __ptext34:	
  5500 ;; *************** function i1_delay *****************
  5501 ;; Defined at:
  5502 ;;		line 30 in file "i2c.c"
  5503 ;; Parameters:    Size  Location     Type
  5504 ;;		None
  5505 ;; Auto vars:     Size  Location     Type
  5506 ;;		None
  5507 ;; Return value:  Size  Location     Type
  5508 ;;                  1    wreg      void 
  5509 ;; Registers used:
  5510 ;;		None
  5511 ;; Tracked objects:
  5512 ;;		On entry : 0/0
  5513 ;;		On exit  : 0/0
  5514 ;;		Unchanged: 0/0
  5515 ;; Data sizes:     COMMON   BANK0   BANK1   BANK3   BANK2
  5516 ;;      Params:         0       0       0       0       0
  5517 ;;      Locals:         0       0       0       0       0
  5518 ;;      Temps:          0       0       0       0       0
  5519 ;;      Totals:         0       0       0       0       0
  5520 ;;Total ram usage:        0 bytes
  5521 ;; Hardware stack levels used:    1
  5522 ;; This function calls:
  5523 ;;		Nothing
  5524 ;; This function is called by:
  5525 ;;		i1_i2c_start
  5526 ;;		i1_i2c_stop
  5527 ;;		i1_i2c_wb
  5528 ;;		i1_i2c_rb
  5529 ;; This function uses a non-reentrant model
  5530 ;;
  5531                           
  5532                           
  5533                           ;psect for function i1_delay
  5534  07CD                     i1_delay:
  5535  07CD                     i1l2042:	
  5536                           ;incstack = 0
  5537 ;; hardware stack exceeded
  5538                           ; Regs used in i1_delay: []
  5539                           
  5540  07CD  0000               	nop	;# 
  5541  07CE  0000               	nop	;# 
  5542  07CF  0000               	nop	;# 
  5543  07D0  0000               	nop	;# 
  5544  07D1  0000               	nop	;# 
  5545  07D2  0000               	nop	;# 
  5546  07D3  0000               	nop	;# 
  5547  07D4  0000               	nop	;# 
  5548  07D5                     i1l102:
  5549  07D5  0008               	return
  5550  07D6                     __end_ofi1_delay:
  5551  007E                     btemp	set	126	;btemp
  5552  007E                     wtemp0	set	126
  5553                           
  5554                           	psect	config
  5555                           
  5556                           ;Config register CONFIG @ 0x2007
  5557                           ;	Oscillator Selection bits
  5558                           ;	FOSC = HS, HS oscillator
  5559                           ;	Watchdog Timer Enable bit
  5560                           ;	WDTE = OFF, WDT disabled
  5561                           ;	Power-up Timer Enable bit
  5562                           ;	PWRTE = OFF, PWRT disabled
  5563                           ;	Brown-out Reset Enable bit
  5564                           ;	BOREN = OFF, BOR disabled
  5565                           ;	Low-Voltage (Single-Supply) In-Circuit Serial Programming Enable bit
  5566                           ;	LVP = ON, RB3/PGM pin has PGM function; low-voltage programming enabled
  5567                           ;	Data EEPROM Memory Code Protection bit
  5568                           ;	CPD = OFF, Data EEPROM code protection off
  5569                           ;	Flash Program Memory Write Enable bits
  5570                           ;	WRT = OFF, Write protection off; all program memory may be written to by EECON control
  5571                           ;	In-Circuit Debugger Mode bit
  5572                           ;	DEBUG = 0x1, unprogrammed default
  5573                           ;	Flash Program Memory Code Protection bit
  5574                           ;	CP = OFF, Code protection off
  5575  2007                     	org	8199
  5576  2007  3FBA               	dw	16314

Data Sizes:
    Strings     0
    Constant    4
    Data        6
    BSS         47
    Persistent  0
    Stack       0

Auto Spaces:
    Space          Size  Autos    Used
    COMMON           14     14      14
    BANK0            80     33      56
    BANK1            80     15      45
    BANK3            96      0       0
    BANK2            96      0       0

Pointer List with Targets:

    None.

Critical Paths under _main in COMMON

    None.

Critical Paths under _ISR in COMMON

    _adc_sample_and_update_average->___wmul
    ___lwdiv->___wmul
    ___wmul->_adc_sample
    __1s_handler->i1_e2pext_w
    i1_e2pext_w->i1_e2pext_r
    i1_e2pext_r->i1_i2c_rb
    i1_e2pext_r->i1_i2c_wb

Critical Paths under _main in BANK0

    _set_temp_exteeprom_check->_e2pext_r
    _e2pext_w->_e2pext_r
    _e2pext_r->_i2c_rb
    _e2pext_r->_i2c_wb

Critical Paths under _ISR in BANK0

    _ISR->_adc_sample_and_update_average
    _show_7sd->___lwdiv
    _adc_sample_and_update_average->_calc_avg
    _calc_avg->___lwdiv
    ___lwdiv->___wmul
    __1s_handler->i1_e2pext_w

Critical Paths under _main in BANK1

    _main->_set_temp_exteeprom_check
    _set_temp_exteeprom_check->_e2pext_w

Critical Paths under _ISR in BANK1

    None.

Critical Paths under _main in BANK3

    None.

Critical Paths under _ISR in BANK3

    None.

Critical Paths under _main in BANK2

    None.

Critical Paths under _ISR in BANK2

    None.

Call Graph Tables:

 ---------------------------------------------------------------------------------
 (Depth) Function   	        Calls       Base Space   Used Autos Params    Refs
 ---------------------------------------------------------------------------------
 (0) _main                                                 2     2      0    2517
                                             13 BANK1      2     2      0
                    _activate_cooler
                    _activate_heater
                  _deactivate_cooler
                  _deactivate_heater
                           _i2c_init
                    _interrupts_init
           _set_temp_exteeprom_check
                        _timer0_init
                        _timer1_init
 ---------------------------------------------------------------------------------
 (1) _timer1_init                                          0     0      0       0
 ---------------------------------------------------------------------------------
 (1) _timer0_init                                          0     0      0       0
 ---------------------------------------------------------------------------------
 (1) _set_temp_exteeprom_check                             3     3      0    2452
                                             10 BANK1      3     3      0
                           _e2pext_r
                           _e2pext_w
 ---------------------------------------------------------------------------------
 (2) _e2pext_w                                            10     7      3    1656
                                              0 BANK1     10     7      3
                           _e2pext_r
                          _i2c_start
                           _i2c_stop
                             _i2c_wb
 ---------------------------------------------------------------------------------
 (3) _e2pext_r                                             5     3      2     762
                                             28 BANK0      5     3      2
                             _i2c_rb
                          _i2c_start
                           _i2c_stop
                             _i2c_wb
 ---------------------------------------------------------------------------------
 (3) _i2c_wb                                               4     4      0     130
                                             24 BANK0      4     4      0
                              _delay
 ---------------------------------------------------------------------------------
 (3) _i2c_stop                                             0     0      0       0
                              _delay
 ---------------------------------------------------------------------------------
 (3) _i2c_start                                            0     0      0       0
                              _delay
 ---------------------------------------------------------------------------------
 (4) _i2c_rb                                               4     4      0     167
                                             24 BANK0      4     4      0
                              _delay
 ---------------------------------------------------------------------------------
 (4) _delay                                                0     0      0       0
 ---------------------------------------------------------------------------------
 (1) _interrupts_init                                      0     0      0       0
 ---------------------------------------------------------------------------------
 (1) _i2c_init                                             0     0      0       0
 ---------------------------------------------------------------------------------
 (1) _deactivate_heater                                    0     0      0       0
 ---------------------------------------------------------------------------------
 (1) _deactivate_cooler                                    0     0      0       0
 ---------------------------------------------------------------------------------
 (1) _activate_heater                                      0     0      0       0
 ---------------------------------------------------------------------------------
 (1) _activate_cooler                                      0     0      0       0
 ---------------------------------------------------------------------------------
 Estimated maximum stack depth 4
 ---------------------------------------------------------------------------------
 (Depth) Function   	        Calls       Base Space   Used Autos Params    Refs
 ---------------------------------------------------------------------------------
 (6) _ISR                                                  6     6      0    6279
                                             18 BANK0      6     6      0
                        __1s_handler
      _adc_sample_and_update_average
                           _show_7sd
 ---------------------------------------------------------------------------------
 (7) _show_7sd                                             0     0      0    2439
                            ___lwdiv
                            ___lwmod
                          _display7s
 ---------------------------------------------------------------------------------
 (8) _display7s                                            1     1      0      22
                                              0 COMMON     1     1      0
 ---------------------------------------------------------------------------------
 (8) ___lwmod                                              5     1      4    1055
                                              0 COMMON     5     1      4
 ---------------------------------------------------------------------------------
 (7) _adc_sample_and_update_average                        1     1      0    3082
                                             17 BANK0      1     1      0
                            ___lwdiv
                             ___wmul
                           _adc_init
                         _adc_sample
                           _calc_avg
 ---------------------------------------------------------------------------------
 (8) _calc_avg                                             8     6      2    1454
                                              9 BANK0      8     6      2
                            ___lwdiv
 ---------------------------------------------------------------------------------
 (8) ___lwdiv                                              7     3      4    1362
                                              2 BANK0      7     3      4
                             ___wmul (ARG)
                         _adc_sample (ARG)
 ---------------------------------------------------------------------------------
 (8) _adc_sample                                          10     8      2      22
                                              0 COMMON    10     8      2
 ---------------------------------------------------------------------------------
 (8) _adc_init                                             0     0      0       0
 ---------------------------------------------------------------------------------
 (8) ___wmul                                               6     2      4     244
                                             10 COMMON     4     0      4
                                              0 BANK0      2     2      0
                         _adc_sample (ARG)
 ---------------------------------------------------------------------------------
 (7) __1s_handler                                          2     2      0     734
                                              5 BANK0      2     2      0
                         i1_e2pext_w
 ---------------------------------------------------------------------------------
 (8) i1_e2pext_w                                          10     7      3     710
                                              9 COMMON     5     2      3
                                              0 BANK0      5     5      0
                         i1_e2pext_r
                        i1_i2c_start
                         i1_i2c_stop
                           i1_i2c_wb
 ---------------------------------------------------------------------------------
 (9) i1_e2pext_r                                           5     3      2     365
                                              4 COMMON     5     3      2
                           i1_i2c_rb
                        i1_i2c_start
                         i1_i2c_stop
                           i1_i2c_wb
 ---------------------------------------------------------------------------------
 (9) i1_i2c_wb                                             4     4      0      90
                                              0 COMMON     4     4      0
                            i1_delay
 ---------------------------------------------------------------------------------
 (9) i1_i2c_stop                                           0     0      0       0
                            i1_delay
 ---------------------------------------------------------------------------------
 (9) i1_i2c_start                                          0     0      0       0
                            i1_delay
 ---------------------------------------------------------------------------------
 (10) i1_i2c_rb                                            4     4      0     114
                                              0 COMMON     4     4      0
                            i1_delay
 ---------------------------------------------------------------------------------
 (10) i1_delay                                             0     0      0       0
 ---------------------------------------------------------------------------------
 Estimated maximum stack depth 10
 ---------------------------------------------------------------------------------

 Call Graph Graphs:

 _main (ROOT)
   _activate_cooler
   _activate_heater
   _deactivate_cooler
   _deactivate_heater
   _i2c_init
   _interrupts_init
   _set_temp_exteeprom_check
     _e2pext_r
       _i2c_rb
         _delay
       _i2c_start
         _delay
       _i2c_stop
         _delay
       _i2c_wb
         _delay
     _e2pext_w
       _e2pext_r
         _i2c_rb
           _delay
         _i2c_start
           _delay
         _i2c_stop
           _delay
         _i2c_wb
           _delay
       _i2c_start
         _delay
       _i2c_stop
         _delay
       _i2c_wb
         _delay
   _timer0_init
   _timer1_init

 _ISR (ROOT)
   __1s_handler
     i1_e2pext_w
       i1_e2pext_r
         i1_i2c_rb
           i1_delay
         i1_i2c_start
           i1_delay
         i1_i2c_stop
           i1_delay
         i1_i2c_wb
           i1_delay
       i1_i2c_start
         i1_delay
       i1_i2c_stop
         i1_delay
       i1_i2c_wb
         i1_delay
   _adc_sample_and_update_average
     ___lwdiv
       ___wmul (ARG)
         _adc_sample (ARG)
       _adc_sample (ARG)
     ___wmul
       _adc_sample (ARG)
     _adc_init
     _adc_sample
     _calc_avg
       ___lwdiv
         ___wmul (ARG)
           _adc_sample (ARG)
         _adc_sample (ARG)
   _show_7sd
     ___lwdiv
       ___wmul (ARG)
         _adc_sample (ARG)
       _adc_sample (ARG)
     ___lwmod
     _display7s

 Address spaces:
Name               Size   Autos  Total    Cost      Usage
BANK3               60      0       0       9        0.0%
BITBANK3            60      0       0       8        0.0%
SFR3                 0      0       0       4        0.0%
BITSFR3              0      0       0       4        0.0%
BANK2               60      0       0      11        0.0%
BITBANK2            60      0       0      10        0.0%
SFR2                 0      0       0       5        0.0%
BITSFR2              0      0       0       5        0.0%
BANK1               50      F      2D       7       56.2%
BITBANK1            50      0       0       6        0.0%
SFR1                 0      0       0       2        0.0%
BITSFR1              0      0       0       2        0.0%
BANK0               50     21      38       5       70.0%
BITBANK0            50      0       0       4        0.0%
SFR0                 0      0       0       1        0.0%
BITSFR0              0      0       0       1        0.0%
COMMON               E      E       E       1      100.0%
BITCOMMON            E      0       0       0        0.0%
CODE                 0      0       0       0        0.0%
DATA                 0      0      73      12        0.0%
ABS                  0      0      73       3        0.0%
NULL                 0      0       0       0        0.0%
STACK                0      0       0       2        0.0%
EEDATA             100      0       0       0        0.0%


Microchip Technology PIC Macro Assembler V2.20 build 20200408173844 
Symbol Table                                                                                   Sat Jul 04 11:21:19 2020

                                     pc 0002                                      l83 035E  
                                    l91 023C                                      l85 037F  
                                    l86 0392                                      l95 027A  
                                    fsr 0004                     ___wmul@multiplicand 007C  
     set_temp_exteeprom_check@read_char 00CA                                     l102 07CC  
                                   l111 0758                                     l120 04BA  
                                   l105 07ED                                     l121 04C6  
                                   l123 04D8                                     l115 061E  
                                   l108 076A                                     l116 062F  
                                   l119 0497                                     l410 07C3  
                                   l413 07BA                                     l351 079A  
                                   l407 07E5                                     l441 009E  
                                   l362 07A6                                     l434 043A  
                                   l442 007D                                     l356 071E  
                                   l358 0726                                     l367 073E  
                                   l369 0746                                     l449 00A3  
                                   _GIE 005F                                     _RB1 0031  
                                   _RB2 0032                                     _RC2 003A  
                                   _RB6 0036                                     _RC5 003D  
                                   _PR2 0092                                     _ISR 01A3  
                   __end_of__1s_handler 05F2                                     fsr0 0004  
                                   indf 0000                       ??_activate_heater 0038  
                     ??_activate_cooler 0038                                    ?_ISR 0070  
                                  l3000 005C                                    l3010 0078  
                                  l3002 0061                                    l3020 0091  
                                  l3012 007C                                    l3004 0066  
                                  l3030 00AD                                    l3022 0097  
                                  l3014 0081                                    l3006 006B  
                                  l3032 00B6                                    l3040 00BE  
                                  l3016 0087                                    l3024 0099  
                                  l3008 0070                                    l3042 00CC  
                                  l3034 00B7                                    l3026 00A2  
                                  l3018 0090                                    l3050 00FE  
                                  l3044 00D9                                    l3028 00A7  
                                  l3046 00E4                                    l3048 00F3  
                                  l2810 04B0                                    l2900 0725  
                                  l2820 04CC                                    l2812 04B4  
                                  l2804 0498                                    l2902 079B  
                                  l2910 0739                                    l2822 04D4  
                                  l2814 04BD                                    l2806 049D  
                                  l2830 074B                                    l2904 07A2  
                                  l2912 073F                                    l2824 04D7  
                                  l2816 04C4                                    l2808 04AF  
                                  l2760 0759                                    l2832 0750  
                                  l2840 034A                                    l2920 07BB  
                                  l2914 0740                                    l2906 0727  
                                  l2818 04C7                                    l2762 075D  
                                  l2850 0372                                    l2842 0351  
                                  l2834 033A                                    l2930 03FA  
                                  l2922 07B1                                    l2916 0745  
                                  l2908 072F                                    l2764 0762  
                                  l2828 0747                                    l2780 0611  
                                  l2852 0379                                    l2844 0358  
                                  l2836 0341                                    l2860 0210  
                                  l2932 0400                                    l2924 07B5  
                                  l2918 07DE                                    l2758 07C4  
                                  l2790 062C                                    l2782 0614  
                                  l2774 05F7                                    l2766 05F5  
                                  l2854 038A                                    l2846 0366  
                                  l2838 0345                                    l2870 0228  
                                  l2862 0219                                    l2934 041A  
                                  l2926 07B9                                    l2792 048E  
                                  l2784 0618                                    l2776 060B  
                                  l2768 05F6                                    l2856 038F  
                                  l2848 036B                                    l2880 0257  
                                  l2872 022F                                    l2864 021E  
                                  l2928 03EA                                    l2890 0707  
                                  l2794 048F                                    l2786 061F  
                                  l2778 060C                                    l2882 0274  
                                  l2874 0236                                    l2866 0222  
                                  l2892 070F                                    l2884 07E6  
                                  l2796 0490                                    l2788 0624  
                                  l2876 024C                                    l2868 0223  
                                  l2886 078F                                    l2894 0719  
                                  l2798 0493                                    l2878 0251  
                                  l2990 004E                                    l2888 0796  
                                  l2896 071F                                    l2992 0054  
                                  l2898 0720                                    l2994 0055  
                                  l2996 0056                                    l2998 0057  
                                  u2000 0372                                    u2001 0371  
                                  u2010 022F                                    u2011 022E  
                                  u2100 072F                                    u2020 0274  
                                  u2101 072E                                    u2021 0273  
                                  u2110 0739                                    u2030 027A  
                                  u2111 0738                                    u2031 0279  
                                  u2040 0796                                    u2120 073E  
                                  u2200 00A2                                    u2041 0795  
                                  u2121 073D                                    u2025 0270  
                                  u2201 00A1                                    u2130 0745  
                                  u2050 070F                                    u2210 00A7  
                                  u2131 0744                                    u2115 0735  
                                  u2051 070E                                    u2211 00A6  
                                  u2060 0719                                    u2140 0400  
                                  u2220 00AD                                    u2061 0718  
                                  u2141 03FF                                    u2221 00AC  
                                  u2070 071E                                    u2230 00B6  
                                  u2150 0078                                    u2071 071D  
                                  u2231 00B5                                    u2151 0077  
                                  u2080 0725                                    u2240 00D9  
                                  u2160 007C                                    u2081 0724  
                                  u2065 0715                                    u2241 00D8  
                                  u2161 007B                                    u2090 07A2  
                                  u2250 00F3                                    u2170 0081  
                                  u2091 07A1                                    u2251 00F2  
                                  u2171 0080                                    u2180 0087  
                                  u2245 00D5                                    u2181 0086  
                                  u2190 0090                                    u2255 00EF  
                                  u2191 008F                                    u1950 061E  
                                  u1951 061D                                    u1944 05FF  
                                  u1945 05FD                                    u1970 04BA  
                                  u1971 04B9                                    _PEIE 005E  
                                  u1980 04C4                                    u1964 04A8  
                                  i1l13 07F8                                    i1l21 058B  
                                  u1981 04C3                                    u1965 04A6  
                                  _INTE 005C                                    u1990 0351  
                                  _INTF 0059                                    u1991 0350  
                                  i1l24 05B1                                    i1l18 0588  
                                  i1l37 03E9                                    i1l83 04F9  
                                  i1l91 02A7                                    i1l85 0516  
                                  i1l86 0525                                    i1l95 02DF  
                                  _TMR0 0001                 __end_of_interrupts_init 07E6  
                                  _date 0041                                    _main 004E  
                                  _time 00B4                                    btemp 007E  
                       __end_ofi1_delay 07D6                                    start 0012  
                            e2pext_r@ah 0040                              e2pext_r@al 003F  
                            e2pext_w@ah 00C3                              e2pext_w@al 00C4  
                            e2pext_w@nt 00C5                                   ??_ISR 0032  
                                 ?_main 0070                                   _EEADR 010D  
                       __end_of___lwdiv 056C                                   i1l102 07D5  
                                 i1l111 077C                                   i1l120 046A  
                                 i1l121 0476                                   i1l123 048A  
                                 i1l115 065C                                   i1l108 078E  
                                 i1l116 066D                                   i1l119 0447  
                                 i1l404 0339                                   i1l423 0205  
                       __end_of___lwmod 06A8                                   i1l374 06DB  
                                 i1l387 01A2                                   i1l397 05F1  
                                 i1l584 06EC                                   i1l586 0706  
                                 i1l856 056B                                   i1l866 06A7  
                                 _RCREG 001A                                   _TMR1H 000F  
                                 _TMR1L 000E                                   _SPBRG 0099  
                                 _PORTA 0005                                   _PORTB 0006  
                                 _PORTD 0008                _set_temp_exteeprom_check 03EA  
                                 _TRISA 0085                                   _TRISB 0086  
                                 _TRISC 0087                                   _TRISD 0088  
                                 _TRISE 0089                         _set_temperature 0052  
                                 _TXREG 0019                                   _i_7sd 004D  
                      __end_ofi1_i2c_rb 048B                                   _delay 07C4  
                      __end_ofi1_i2c_wb 066E                                   _linha 07AD  
                                 _temps 00A0                                   _state 0057  
                           ?i1_i2c_stop 0070                             ?i1_e2pext_r 0074  
                           ?i1_e2pext_w 0079                                   pclath 000A  
                                 status 0003                                   wtemp0 007E  
                           e2pext_r@ret 003E                             e2pext_w@val 00C0  
                           e2pext_w@tmp 00C6                         __initialization 0015  
                          __end_of_main 010C                        __end_of_i2c_init 07EE  
                           __1s_handler 05B2                        __end_of_i2c_stop 0759  
                      __end_of_e2pext_r 0393                        __end_of_e2pext_w 027B  
                                ??_main 0041          ?_adc_sample_and_update_average 0070  
                                ?_delay 0070                                  _ADCON0 001F  
                                _ADCON1 009F                                  _ADRESH 001E  
                                _ADRESL 009E                                  _EEDATA 010C  
                                _CCPR1L 0015                                  _EECON2 018D  
                             ??i1_delay 0070                        __end_of_adc_init 07F9  
                                i1l2120 0781                                  i1l2042 07CD  
                                i1l2122 0786                                  i1l2130 0631  
                                i1l2124 076B                                  i1l2140 0649  
                                i1l2132 0634                                  i1l2220 052A  
                                i1l2118 077D                                  i1l2126 076F  
                                i1l2150 065D                                  i1l2142 064A  
                                i1l2230 0542                                  i1l2222 0530  
                                i1l2310 039F                                  i1l2302 039B  
                                i1l2160 0440                                  i1l2128 0774  
                                i1l2152 0662                                  i1l2144 064F  
                                i1l2232 0553                                  i1l2224 0533  
                                i1l2240 0567                                  i1l2170 044D  
                                i1l2162 0443                                  i1l2154 066A  
                                i1l2146 0652                                  i1l2138 0635  
                                i1l2250 04E7                                  i1l2410 06FA  
                                i1l2402 06DC                                  i1l2234 0559  
                                i1l2226 053A                                  i1l2218 0526  
                                i1l2330 03A9                                  i1l2322 03A5  
                                i1l2314 03A1                                  i1l2306 039D  
                                i1l2180 0472                                  i1l2172 045F  
                                i1l2156 043C                                  i1l2148 0656  
                                i1l2260 0509                                  i1l2252 04EC  
                                i1l2244 04D9                                  i1l2412 0700  
                                i1l2404 06E0                                  i1l2236 055A  
                                i1l2228 053E                                  i1l2420 0677  
                                i1l2182 0479                                  i1l2174 0460  
                                i1l2158 043D                                  i1l2262 0510  
                                i1l2254 04F3                                  i1l2246 04DE  
                                i1l2406 06E4                                  i1l2270 07F4  
                                i1l2238 0561                                  i1l2430 0696  
                                i1l2422 067E                                  i1l2350 03B3  
                                i1l2342 03AF                                  i1l2334 03AB  
                                i1l2326 03A7                                  i1l2318 03A3  
                                i1l2510 0119                                  i1l2184 047E  
                                i1l2176 0464                                  i1l2168 0448  
                                i1l2264 051F                                  i1l2256 04FF  
                                i1l2248 04E2                                  i1l2440 0284  
                                i1l2408 06F3                                  i1l2272 056D  
                                i1l2432 069D                                  i1l2424 0682  
                                i1l2416 066E                                  i1l2360 03B7  
                                i1l2520 0153                                  i1l2512 011C  
                                i1l2504 010C                                  i1l2186 0486  
                                i1l2178 046D                                  i1l2266 0524  
                                i1l2258 0504                                  i1l2450 029A  
                                i1l2442 0289                                  i1l2274 056E  
                                i1l2282 057D                                  i1l2426 0686  
                                i1l2418 0674                                  i1l2434 06A3  
                                i1l2354 03B5                                  i1l2346 03B1  
                                i1l2338 03AD                                  i1l2290 0395  
                                i1l2530 0193                                  i1l2522 0158  
                                i1l2514 011E                                  i1l2506 010D  
                                i1l2188 0489                                  u121_24 063D  
                                i1l2460 02D9                                  i1l2452 02A1  
                                i1l2444 028D                                  i1l2540 05BD  
                                i1l2284 058F                                  i1l2276 0573  
                                i1l2428 0690                                  i1l2524 015A  
                                i1l2516 0124                                  i1l2508 010F  
                                u121_25 063B                                  i1l2454 02B7  
                                i1l2446 028E                                  i1l2438 027B  
                                i1l2550 05D3                                  i1l2542 05C3  
                                i1l2278 0578                                  i1l2294 0397  
                                i1l2526 0160                                  i1l2518 013C  
                                i1l2534 0195                                  u122_20 065C  
                                i1l2456 02BC                                  i1l2448 0293  
                                i1l2552 05DD                                  i1l2544 05C8  
                                i1l2536 05B2                                  u130_20 0542  
                                i1l2392 06AD                                  i1l2560 02E5  
                                i1l2288 0394                                  i1l2528 017A  
                                u122_21 065B                                  u130_21 0541  
                                i1l2458 02C2                                  i1l2554 05EA  
                                i1l2546 05CD                                  i1l2538 05B9  
                                i1l2394 06BE                                  i1l2386 06A8  
                                i1l2570 0335                                  i1l2562 0316  
                                i1l2298 0399                                  i1l2650 01B3  
                                i1l2556 05ED                                  i1l2548 05CF  
                                i1l2396 06C2                                  i1l2564 031C  
                                i1l2652 01B8                                  i1l2660 01C2  
                                i1l2644 01A3                                  i1l2398 06C8  
                                i1l2566 0327                                  i1l2558 02E0  
                                i1l2670 01DB                                  i1l2662 01C8  
                                i1l2654 01BC                                  i1l2646 01A7  
                                i1l2680 01F5                                  i1l2672 01DF  
                                i1l2664 01CE                                  i1l2656 01C0  
                                i1l2648 01AD                                  i1l2690 0202  
                                i1l2682 01F6                                  i1l2674 01E0  
                                i1l2666 01D2                                  u123_24 0458  
                                i1l2684 01FB                                  i1l2676 01E4  
                                i1l2668 01D6                                  i1l2692 0204  
                                u123_25 0456                                  u131_25 0543  
                                i1l2686 01FF                                  i1l2678 01E9  
                                u124_20 046A                                  u132_20 0553  
                                i1l2688 0201                                  u124_21 0469  
                                u132_21 0552                                  u132_25 054F  
                                u125_20 0472                                  u125_21 0471  
                                u133_25 055B                                  u134_20 0567  
                                u142_20 06C8                                  u150_20 0690  
                                u134_21 0566                                  u142_21 06C7  
                                u150_21 068F                                  u150_25 068C  
                                u135_20 04EC                                  u143_20 06E4  
                                u135_21 04EB                                  u143_21 06E3  
                                u151_25 0697                                  u136_20 0509  
                                u128_20 0530                                  u152_20 06A3  
                                u136_21 0508                                  u128_21 052F  
                                u152_21 06A2                                  u144_25 06ED  
                                u153_20 029A                                  u137_20 058F  
                                u153_21 0299                                  u137_21 058E  
                                u145_25 06F4                                  u129_25 0534  
                                u154_20 02D9                                  u170_20 05C3  
                                u146_20 0700                                  u154_21 02D8  
                                u170_21 05C2                                  u146_21 06FF  
                                u154_25 02D5                                  u138_25 0594  
                                u155_20 02DF                                  u171_20 05C8  
                                u147_20 0674                                  u155_21 02DE  
                                u171_21 05C7                                  u147_21 0673  
                                u172_20 05DD                                  u180_20 01D6  
                                u172_21 05DC                                  u180_21 01D5  
                                u148_25 0678                                  u173_20 0334  
                                u149_20 0686                                  u181_20 01E4  
                                u173_21 0333                                  u149_21 0685  
                                u181_21 01E3                                  u173_25 0330  
                                u182_20 01F5                                  u182_21 01F4  
                                u167_20 0124                                  u175_20 01A7  
                                u167_21 0123                                  u175_21 01A6  
                                u168_20 0160                                  u176_20 01AD  
                                u168_21 015F                                  u176_21 01AC  
                                u169_20 05B9                                  u177_20 01B3  
                                u169_21 05B8                                  u177_21 01B2  
                                u178_20 01C8                                  u178_21 01C7  
                                u179_20 01CE                                  u179_21 01CD  
                      ?_interrupts_init 0070                        __end_of_calc_avg 06DC  
                                _TMR0IE 005D                                  _TMR0IF 005A  
                                _TMR1IE 0460                                  _TMR1IF 0060  
                                _TMR1ON 0080                      __size_of_i2c_start 0012  
                                _i2c_rb 048B                                  _i2c_wb 05F2  
                                ___wmul 06DC                                  _t_1sec 004E  
                          ?_timer0_init 0070                            ?_timer1_init 0070  
                             ??___lwdiv 007E                               ??___lwmod 0074  
                   __size_ofi1_i2c_stop 0012                     __size_ofi1_e2pext_r 004D  
                   __size_ofi1_e2pext_w 0065                            ?i1_i2c_start 0070  
                      __end_of_show_7sd 01A3                                  saved_w 007E  
                          e2pext_r@addr 003C                            e2pext_w@addr 00BE  
               __end_of__initialization 004A                          __pcstackCOMMON 0070  
                          __pidataBANK0 07EE                           __end_of_delay 07CD  
                         __end_of_linha 07B1                               ?i1_i2c_rb 0070  
                             ?i1_i2c_wb 0070                              _adc_sample 056C  
                       _activate_heater 078F                         _activate_cooler 079B  
                     __end_of_i2c_start 076B                         __1s_handler$500 0025  
                        main@difference 00CB                      __size_of_display7s 0057  
                               ??_delay 0038                              __pbssBANK0 0041  
                            __pbssBANK1 00A0                          i1e2pext_r@addr 0074  
                             ?_i2c_init 0070                          i1e2pext_w@addr 0079  
                             ?_i2c_stop 0070                               ?_e2pext_r 003C  
                             ?_e2pext_w 00BE                                 ?_i2c_rb 0070  
                               ?_i2c_wb 0070                              __pmaintext 004E  
                               ?___wmul 007A              ??_set_temp_exteeprom_check 00C8  
                            __pintentry 0004                              ??i1_i2c_rb 0070  
                            ??i1_i2c_wb 0070                                 _CCP1CON 0017  
              _avg_measured_temperature 0054                               ?_adc_init 0070  
                               _T1CKPS0 0084                                 _T1CKPS1 0085  
                               _ISR$515 0036                               ?_calc_avg 0029  
                          ??i1_i2c_stop 0070                            ??i1_e2pext_r 0076  
                          ??i1_e2pext_w 007C                              __stringtab 07A7  
                               i1_delay 07CD                                 i2c_rb@i 003B  
                               i2c_wb@i 003B                              ??_i2c_init 0038  
                            ??_i2c_stop 0038                              ??_e2pext_r 003E  
                            ??_e2pext_w 00C1                 __end_of_activate_heater 079B  
                       __size_of_i2c_rb 004E                         __size_of_i2c_wb 003E  
               __end_of_activate_cooler 07A7                               ?_show_7sd 0070  
                     __end_of_display7s 03EA                         __size_of___wmul 002B  
                               ___lwdiv 0526                            ?__1s_handler 0070  
                               ___lwmod 066E                             ?_adc_sample 0070  
                    __end_ofi1_i2c_stop 077D                      __end_ofi1_e2pext_r 0526  
                    __end_ofi1_e2pext_w 02E0                    __size_of_timer0_init 0009  
                            ??_adc_init 0070                    __size_of_timer1_init 000A  
                               __ptext1 07B1                                 __ptext2 07BB  
                               __ptext3 03EA                                 __ptext4 0210  
                               __ptext5 033A                                 __ptext6 05F2  
                               __ptext7 0747                                 __ptext8 0759  
                               __ptext9 048B                              ??_calc_avg 002B  
                          __size_of_ISR 006D                               _T2CONbits 0012  
                  __size_ofi1_i2c_start 0012                                 clrloop0 07D7  
                  end_of_initialization 004A         ??_adc_sample_and_update_average 0031  
                            ??_show_7sd 007E                               _RCSTAbits 0018  
                             i1i2c_rb@i 0073                               i1i2c_wb@i 0073  
                             _PORTCbits 0007                               _PORTDbits 0008  
                             _PORTEbits 0009                               _TRISCbits 0087  
                             _TRISDbits 0088                     __size_of_adc_sample 0046  
                             i2c_rb@ack 0039                               i2c_rb@ret 003A  
                             i2c_wb@val 003A                               _TXSTAbits 0098  
                            display7s@v 0070                        ?_activate_heater 0070  
                      ?_activate_cooler 0070        __end_of_set_temp_exteeprom_check 043B  
                        __end_of_i2c_rb 04D9                          __end_of_i2c_wb 0630  
              __size_of_interrupts_init 0008                          __end_of___wmul 0707  
                             __7sd_mask 0056                       __size_ofi1_i2c_rb 0050  
                     __size_ofi1_i2c_wb 003E                     start_initialization 0015  
                           __end_of_ISR 0210                               _i2c_start 0759  
                     __size_of_i2c_init 0008                       __size_of_i2c_stop 0012  
                     __size_of_e2pext_r 0059                       __size_of_e2pext_w 006B  
                              ??_i2c_rb 0038                                ??_i2c_wb 0038  
 __end_of_adc_sample_and_update_average 033A  __size_of_adc_sample_and_update_average 005A  
         _adc_sample_and_update_average 02E0                                ??___wmul 007E  
                           __pdataBANK0 0052                    __size_of__1s_handler 0040  
                     __size_of_adc_init 0005                               ___latbits 0002  
                         __pcstackBANK0 0020                           __pcstackBANK1 00BE  
                     __size_of_calc_avg 0034                              ?_i2c_start 0070  
                              ?i1_delay 0070                           i1e2pext_r@ret 0076  
                         i1e2pext_w@val 007B                           i1e2pext_w@tmp 0023  
                      ___lwdiv@dividend 0024                            ??_adc_sample 0072  
                              ?___lwdiv 0022                                ?___lwmod 0070  
                             _heater_on 0051                       __size_of_show_7sd 0097  
                             __pstrings 07A7                               _display7s 0393  
                             calc_avg@i 0030                               _cooler_on 0050  
                     ??_interrupts_init 0038                          _temps_iterator 004B  
     __size_of_set_temp_exteeprom_check 0051                        ___lwdiv@quotient 0026  
                        __size_of_delay 0009               ?_set_temp_exteeprom_check 0070  
                     _deactivate_heater 0707                       _deactivate_cooler 0727  
                    ?_deactivate_heater 0070                      ?_deactivate_cooler 0070  
                     interrupt_function 0004                      __end_of_adc_sample 05B2  
                        ___wmul@product 0020                               clear_ram0 07D6  
                   ??_deactivate_heater 0038                     ??_deactivate_cooler 0038  
                              _PIR1bits 000C                           ??_timer0_init 0038  
                         ??_timer1_init 0038                             calc_avg@avg 002E  
                              i1_i2c_rb 043B                                i1_i2c_wb 0630  
                         ??i1_i2c_start 0070                              ?_display7s 0070  
                            _ADCON0bits 001F                             __stringbase 07AC  
                     ___wmul@multiplier 007A               __end_of_deactivate_heater 0727  
             __end_of_deactivate_cooler 0747                             ??_i2c_start 0038  
                      __size_ofi1_delay 0009                                _i2c_init 07E6  
                              _i2c_stop 0747                                _e2pext_r 033A  
                              _e2pext_w 0210                              _EECON1bits 018C  
                      __size_of___lwdiv 0046                        __size_of___lwmod 003A  
                    __end_of__stringtab 07AD                                _adc_init 07F4  
                       adc_sample@canal 0079                                _calc_avg 06A8  
                   __end_of_timer0_init 07C4                     __end_of_timer1_init 07BB  
                          i1e2pext_r@ah 0078                            i1e2pext_r@al 0077  
                          i1e2pext_w@ah 0020                            i1e2pext_w@al 0021  
                          i1e2pext_w@nt 0022                         ___lwdiv@divisor 0022  
                   __end_ofi1_i2c_start 078F                         ___lwdiv@counter 0028  
                              __ptext10 07C4                                __ptext11 07DE  
                              __ptext20 066E                                __ptext12 07E6  
                              __ptext21 02E0                                __ptext13 0707  
                              __ptext30 0630                                __ptext22 06A8  
                              __ptext14 0727                                __ptext31 076B  
                              __ptext23 0526                                __ptext15 078F  
                              __ptext32 077D                                __ptext24 056C  
                              __ptext16 079B                                __ptext33 043B  
                              __ptext25 07F4                                __ptext17 01A3  
                              __ptext34 07CD                                __ptext26 06DC  
                              __ptext18 010C                                __ptext27 05B2  
                              __ptext19 0393                                __ptext28 027B  
                              __ptext29 04D9                                _n_blinks 004F  
                         __size_of_main 00BE                                _show_7sd 010C  
                           ??_display7s 0070                __size_of_activate_heater 000C  
              __size_of_activate_cooler 000C              __size_of_deactivate_heater 0020  
            __size_of_deactivate_cooler 0020                             i1i2c_rb@ack 0071  
                           i1i2c_rb@ret 0072                             i1i2c_wb@val 0072  
                              intlevel1 0000                        ___lwmod@dividend 0072  
                             stringcode 07A7                         _interrupts_init 07DE  
                         ??__1s_handler 007E                             _timer0_init 07BB  
                           _timer1_init 07B1                             i1_i2c_start 077D  
                            _OPTION_REG 0081                         ___lwmod@divisor 0070  
                       ___lwmod@counter 0074                                stringdir 07A7  
                              stringtab 07A7                              i1_i2c_stop 076B  
                            i1_e2pext_r 04D9                              i1_e2pext_w 027B  
